ccollections
deque
p0
((lp1
(lp2
F0.5494237527305296
aF0.17941293245540735
aF0.035324134718455316
aa(lp3
F0.5540318765956311
aF0.06811885902092266
aF0.042608307496955794
aa(lp4
F0.6200847576765797
aF0.08318399029391416
aF0.046578127789025134
aa(lp5
F0.6087758418584801
aF0.14373114063494874
aF0.034856978059553775
aa(lp6
F0.6031058684133955
aF0.19277234909821434
aF0.038003089974654375
aa(lp7
F0.572231206621688
aF0.13798406327583057
aF0.05159312341292682
aa(lp8
F0.5063207029954007
aF0.16922430566944646
aF0.04525063919850961
aa(lp9
F0.5008899631562469
aF0.1305078659775557
aF0.046046135661872205
aa(lp10
F0.5131803836118021
aF0.08237276422112969
aF0.03155898378652038
aa(lp11
F0.5981272807528443
aF0.030336126837550777
aF0.027797290316795627
aa(lp12
F0.5588925868744296
aF0.04204514798722159
aF0.027267411097905123
aa(lp13
F0.5192309512417634
aF0.05245521166962737
aF0.028688176884029356
aa(lp14
F0.466318986808578
aF0.19692291596079092
aF0.028335176866658658
aa(lp15
F0.46806629159755786
aF0.13227836900103762
aF0.023710634474176262
aa(lp16
F0.4825948632639693
aF0.079972391005935
aF0.03115977091421851
aa(lp17
F0.49103542506887604
aF0.05225418664568569
aF0.026745906779048857
aa(lp18
F0.6572159557088961
aF0.16930597503662442
aF0.023505690460369367
aa(lp19
F0.6503749082287423
aF0.1300775795486102
aF0.03516203152179043
aa(lp20
F0.6501275266990658
aF0.08364024129404354
aF0.032890626392737474
aa(lp21
F0.6642832720354701
aF0.018242713026067146
aF0.029104598520798455
aa(lp22
F0.6493649477660358
aF-0.0155806630381694
aF0.02459054719891946
aa(lp23
F0.6224974201897696
aF-0.03382560341446898
aF0.027763004960595552
aa(lp24
F0.59662666508562
aF0.0004725796246901077
aF0.032164185597237605
aa(lp25
F0.5470288265460586
aF-0.02010912227242887
aF0.03186344621914825
aa(lp26
F0.5092146196673706
aF-0.0020551084377268634
aF0.0292445847900708
aa(lp27
F0.4529849667437409
aF0.17297204702082017
aF0.025592591748983037
aa(lp28
F0.4664684075083764
aF0.14426305070691245
aF0.03317896804824787
aa(lp29
F0.4602333467096014
aF0.08264302006733869
aF0.028372158865293172
aa(lp30
F0.4810241170288854
aF0.042442739082170396
aF0.026826161112901373
aa(lp31
F0.4705820500964791
aF-0.017208656246681348
aF0.025677309078344375
aa(lp32
F0.46903777722387613
aF-0.054447478752091764
aF0.024265324275913023
aa(lp33
F0.5081923515294369
aF-0.06573049933236572
aF0.03593819225985205
aa(lp34
F0.551406093358453
aF-0.0709550295400436
aF0.02622696516588309
aa(lp35
F0.6562934960855709
aF-0.07813134661282202
aF0.027902988017112506
aa(lp36
F0.6926970867940333
aF-0.06680518534185667
aF0.022493628985405075
aa(lp37
F0.7303852669877412
aF-0.06041683532999911
aF0.023671857909637738
aa(lp38
F0.7388076616411231
aF-0.02288243958416636
aF0.0230136496850365
aa(lp39
F0.7252533206805253
aF0.041177571919458006
aF0.02134278845726375
aa(lp40
F0.7178609661751942
aF0.08992772573501417
aF0.020695659991913026
aa(lp41
F0.7149876816776918
aF0.13389815390247994
aF0.021943291004263024
aa(lp42
F0.7139292536575916
aF0.18351297161882768
aF0.020508052853073607
aa(lp43
F0.7095222398713669
aF0.23654609018578568
aF0.025825270389265742
aa(lp44
F0.6716577882161252
aF0.24709015281669316
aF0.02252595505998316
aa(lp45
F0.6266461516859225
aF0.2563388066052501
aF0.0297403603407065
aa(lp46
F0.5837284986163265
aF0.24382585347866664
aF0.028906435488832146
aa(lp47
F0.5234457576671752
aF0.2398177060809109
aF0.02718248563572359
aa(lp48
F0.4770888460046674
aF0.24903603215093378
aF0.021584587723935105
aa(lp49
F0.4433790245077557
aF0.24107348578207907
aF0.023491713564722756
aa(lp50
F0.39952532539815133
aF0.23371369588090016
aF0.022654241934565562
aa(lp51
F0.4154759221616766
aF0.19489164862222255
aF0.026322556272969228
aa(lp52
F0.42378295070196786
aF0.14824795673909072
aF0.03301261403725739
aa(lp53
F0.4370813769024874
aF0.10264321525993271
aF0.02975445270187961
aa(lp54
F0.4325626065552867
aF0.03480628171960881
aF0.0287409592301724
aa(lp55
F0.4489768797946542
aF-0.00991964798043645
aF0.02972871658059644
aa(lp56
F0.42676388445733565
aF-0.059117626674458676
aF0.029605499509114095
aa(lp57
F0.44403196131250733
aF-0.10945171080073617
aF0.030176058155743514
aa(lp58
F0.4793283786252816
aF-0.11923540521926093
aF0.030604901184774616
aa(lp59
F0.5036923790777562
aF-0.12167349035456516
aF0.02389586900415497
aa(lp60
F0.5622932980939382
aF-0.13041644478371653
aF0.02375487469341282
aa(lp61
F0.6114474265817492
aF-0.0970553906665037
aF0.023681738330404413
aa(lp62
F0.6584631481886077
aF-0.11185041681415887
aF0.0256075332755211
aa(lp63
F0.6907608494679686
aF-0.11997452262697968
aF0.02896242009551284
aa(lp64
F0.7320167596892323
aF-0.12091053992515205
aF0.025535722683914207
aa(lp65
F0.7221675960984714
aF-0.16046397807880242
aF0.019576741488647922
aa(lp66
F0.6855754585094711
aF-0.1690275212100168
aF0.022228983508600347
aa(lp67
F0.6351475474925087
aF-0.17308780506788984
aF0.023186425354491006
aa(lp68
F0.5936859536419284
aF-0.1551471281137777
aF0.02679069047782443
aa(lp69
F0.5492564385995626
aF-0.15556836297714932
aF0.029910721208682454
aa(lp70
F0.5040337218763331
aF-0.1448037065477584
aF0.025840897579401573
aa(lp71
F0.4656455497483947
aF-0.13546151995455616
aF0.023626915184186262
aa(lp72
F0.4049980410747132
aF-0.1367028717869036
aF0.02751325968375008
aa(lp73
F0.4211757408075808
aF-0.1921840720968637
aF0.024927434855762074
aa(lp74
F0.4562428346636643
aF-0.1990855351714717
aF0.02674112073002866
aa(lp75
F0.5058641260707433
aF-0.198492793929696
aF0.022774538810320967
aa(lp76
F0.5422395027077048
aF-0.207066486161844
aF0.027222739689409504
aa(lp77
F0.5944332369338821
aF-0.202881742424377
aF0.023508404202613256
aa(lp78
F0.6467823414386771
aF-0.19918569180479542
aF0.035204168131628605
aa(lp79
F0.6889966532323939
aF-0.20824932460355616
aF0.02056511523581905
aa(lp80
F0.7293886774942977
aF-0.20653577927733008
aF0.01984673623663386
aa(lp81
F0.7247124214545518
aF-0.23708928940256477
aF0.019365662964137872
aa(lp82
F0.6845363446475944
aF-0.24957328496181336
aF0.020311268398877612
aa(lp83
F0.6333818784305657
aF-0.24222775337644675
aF0.02392412042637231
aa(lp84
F0.5795822549453857
aF-0.2420899585782529
aF0.025105146287129485
aa(lp85
F0.5406606165220768
aF-0.2402490798824016
aF0.022559281453383595
aa(lp86
F0.5058195916355229
aF-0.24114678924944494
aF0.022127683420836233
aa(lp87
F0.45242870839900806
aF-0.2417085540669997
aF0.018940111677733018
aa(lp88
F0.4196988132101398
aF-0.24217569890654558
aF0.01752730880077611
aa(lp89
F0.4247505270081844
aF-0.275701125909917
aF0.02192579809269079
aaI2000
tp90
Rp91
.