ccollections
deque
p0
((lp1
(dp2
S'right_j6'
p3
F3.3163291015625
sS'right_j5'
p4
F0.26669140625
sS'right_j4'
p5
F0.0549130859375
sS'right_j3'
p6
F1.859076171875
sS'right_j2'
p7
F0.03037890625
sS'right_j1'
p8
F-0.6153193359375
sS'right_j0'
p9
F0.002595703125
sa(dp10
g3
F3.038447265625
sg4
F0.2898662109375
sg5
F0.04422265625
sg6
F1.8412822265625
sg7
F-0.123767578125
sg8
F-0.6124384765625
sg9
F-0.059759765625
sa(dp11
g3
F3.038447265625
sg4
F0.448580078125
sg5
F0.2135625
sg6
F1.651330078125
sg7
F-0.1718447265625
sg8
F-0.531404296875
sg9
F0.0017724609375
sa(dp12
g3
F3.038447265625
sg4
F0.3716181640625
sg5
F0.3306259765625
sg6
F1.660732421875
sg7
F-0.2433818359375
sg8
F-0.484927734375
sg9
F0.16129296875
sa(dp13
g3
F3.038447265625
sg4
F0.4177490234375
sg5
F0.4474443359375
sg6
F1.6084873046875
sg7
F-0.366181640625
sg8
F-0.4241474609375
sg9
F0.332513671875
sa(dp14
g3
F2.43269140625
sg4
F0.6369638671875
sg5
F1.2453154296875
sg6
F1.7566611328125
sg7
F-0.6951484375
sg8
F-0.230087890625
sg9
F0.54233203125
sa(dp15
g3
F3.3167421875
sg4
F0.1911103515625
sg5
F0.0209833984375
sg6
F1.9696943359375
sg7
F-0.02315625
sg8
F-0.6679765625
sg9
F0.0366513671875
sa(dp16
g3
F3.3167421875
sg4
F0.1242314453125
sg5
F0.0240693359375
sg6
F1.996728515625
sg7
F-0.095984375
sg8
F-0.6668447265625
sg9
F0.0293447265625
sa(dp17
g3
F2.9916064453125
sg4
F0.1072412109375
sg5
F0.2503203125
sg6
F2.047314453125
sg7
F-0.0636083984375
sg8
F-0.6346533203125
sg9
F-0.0933984375
sa(dp18
g3
F2.883025390625
sg4
F0.35837109375
sg5
F0.28750390625
sg6
F1.752609375
sg7
F-0.1525517578125
sg8
F-0.5267802734375
sg9
F-0.10121875
sa(dp19
g3
F2.883025390625
sg4
F0.2205087890625
sg5
F0.287904296875
sg6
F1.8600869140625
sg7
F-0.2099775390625
sg8
F-0.546525390625
sg9
F-0.028173828125
sa(dp20
g3
F2.883025390625
sg4
F0.181375
sg5
F0.2700478515625
sg6
F1.940486328125
sg7
F-0.249572265625
sg8
F-0.56256640625
sg9
F0.024
sa(dp21
g3
F2.883025390625
sg4
F0.1929697265625
sg5
F0.473912109375
sg6
F2.01233984375
sg7
F-0.2733310546875
sg8
F-0.5597880859375
sg9
F0.350330078125
sa(dp22
g3
F3.207541015625
sg4
F0.1426552734375
sg5
F0.07916015625
sg6
F2.0580068359375
sg7
F-0.060296875
sg8
F-0.626626953125
sg9
F-0.004298828125
sa(dp23
g3
F3.08175
sg4
F0.2283837890625
sg5
F0.07628125
sg6
F1.99918359375
sg7
F-0.1511171875
sg8
F-0.6195322265625
sg9
F-0.025189453125
sa(dp24
g3
F2.7319794921875
sg4
F0.1834541015625
sg5
F0.489521484375
sg6
F2.0581513671875
sg7
F-0.241513671875
sg8
F-0.5762470703125
sg9
F0.023794921875
sa(dp25
g3
F3.31445703125
sg4
F0.4938720703125
sg5
F0.1143037109375
sg6
F1.4986181640625
sg7
F-0.0171103515625
sg8
F-0.4621982421875
sg9
F0.016796875
sa(dp26
g3
F3.144123046875
sg4
F0.5286279296875
sg5
F0.1328046875
sg6
F1.50673046875
sg7
F-0.11901171875
sg8
F-0.4740263671875
sg9
F0.0350048828125
sa(dp27
g3
F2.8759755859375
sg4
F0.5265498046875
sg5
F0.449083984375
sg6
F1.5310478515625
sg7
F-0.315794921875
sg8
F-0.40276171875
sg9
F0.1016962890625
sa(dp28
g3
F2.793513671875
sg4
F0.6293076171875
sg5
F0.2821591796875
sg6
F1.506296875
sg7
F-0.110087890625
sg8
F-0.445025390625
sg9
F-0.15625
sa(dp29
g3
F2.793513671875
sg4
F0.4988427734375
sg5
F0.344169921875
sg6
F1.542634765625
sg7
F-0.2510068359375
sg8
F-0.420751953125
sg9
F-0.0954560546875
sa(dp30
g3
F2.416126953125
sg4
F0.443609375
sg5
F0.660875
sg6
F1.7118232421875
sg7
F-0.27677734375
sg8
F-0.448826171875
sg9
F-0.0958681640625
sa(dp31
g3
F2.416126953125
sg4
F0.412791015625
sg5
F0.817240234375
sg6
F1.721361328125
sg7
F-0.5278994140625
sg8
F-0.3413642578125
sg9
F0.1747802734375
sa(dp32
g3
F2.485083984375
sg4
F0.2637861328125
sg5
F0.55211328125
sg6
F1.954373046875
sg7
F-0.2088310546875
sg8
F-0.56575
sg9
F-0.1370185546875
sa(dp33
g3
F2.4848642578125
sg4
F0.218236328125
sg5
F0.63235546875
sg6
F2.0331474609375
sg7
F-0.2828232421875
sg8
F-0.5542373046875
sg9
F-0.0310546875
sa(dp34
g3
F3.184947265625
sg4
F0.1060009765625
sg5
F0.043396484375
sg6
F2.098765625
sg7
F0.0213095703125
sg8
F-0.6462763671875
sg9
F0.003212890625
sa(dp35
g3
F3.1787373046875
sg4
F0.2273388671875
sg5
F0.132185546875
sg6
F2.0681220703125
sg7
F-0.03971484375
sg8
F-0.651421875
sg9
F-0.00326953125
sa(dp36
g3
F2.6862109375
sg4
F0.068314453125
sg5
F0.4813095703125
sg6
F2.2037890625
sg7
F-0.1036181640625
sg8
F-0.6443271484375
sg9
F-0.0429853515625
sa(dp37
g3
F2.2807421875
sg4
F0.061677734375
sg5
F0.8123203125
sg6
F2.18472265625
sg7
F-0.2066748046875
sg8
F-0.60081640625
sg9
F0.03551953125
sa(dp38
g3
F2.909130859375
sg4
F0.151564453125
sg5
F0.0129658203125
sg6
F2.098765625
sg7
F-0.0028623046875
sg8
F-0.6460703125
sg9
F-0.38372265625
sa(dp39
g3
F2.68537109375
sg4
F0.05670703125
sg5
F0.205544921875
sg6
F2.1335869140625
sg7
F-0.0850478515625
sg8
F-0.6313603515625
sg9
F-0.37426171875
sa(dp40
g3
F2.5687470703125
sg4
F0.1851064453125
sg5
F0.332265625
sg6
F2.062203125
sg7
F-0.084615234375
sg8
F-0.6419599609375
sg9
F-0.367791015625
sa(dp41
g3
F2.5687470703125
sg4
F0.2704091796875
sg5
F0.3154306640625
sg6
F1.90737890625
sg7
F-0.1112431640625
sg8
F-0.5759375
sg9
F-0.326865234375
sa(dp42
g3
F2.5689658203125
sg4
F0.6022333984375
sg5
F0.4078212890625
sg6
F1.5294599609375
sg7
F-0.1853701171875
sg8
F-0.4265146484375
sg9
F-0.2486103515625
sa(dp43
g3
F2.5687470703125
sg4
F0.6466728515625
sg5
F0.587619140625
sg6
F1.379310546875
sg7
F-0.371505859375
sg8
F-0.2945732421875
sg9
F-0.1006015625
sa(dp44
g3
F2.416953125
sg4
F0.7475205078125
sg5
F0.906080078125
sg6
F1.2470810546875
sg7
F-0.594302734375
sg8
F-0.1269345703125
sg9
F0.01772265625
sa(dp45
g3
F3.0044521484375
sg4
F0.8146572265625
sg5
F0.0491552734375
sg6
F1.173486328125
sg7
F0.0021708984375
sg8
F-0.3406435546875
sg9
F-0.2576591796875
sa(dp46
g3
F3.0046591796875
sg4
F0.7456611328125
sg5
F0.0664169921875
sg6
F1.2354951171875
sg7
F-0.0263232421875
sg8
F-0.3603896484375
sg9
F-0.1557353515625
sa(dp47
g3
F3.160494140625
sg4
F0.673541015625
sg5
F0.153552734375
sg6
F1.249400390625
sg7
F-0.138873046875
sg8
F-0.342908203125
sg9
F-0.01819140625
sa(dp48
g3
F3.00653125
sg4
F0.655775390625
sg5
F0.326314453125
sg6
F1.252296875
sg7
F-0.2417939453125
sg8
F-0.30712109375
sg9
F0.0993291015625
sa(dp49
g3
F3.3121845703125
sg4
F0.66341796875
sg5
F0.117802734375
sg6
F1.2569345703125
sg7
F-0.006751953125
sg8
F-0.3619326171875
sg9
F0.0245146484375
sa(dp50
g3
F3.3121845703125
sg4
F0.7119765625
sg5
F0.1502734375
sg6
F1.20651171875
sg7
F-0.032802734375
sg8
F-0.3433134765625
sg9
F0.1116845703125
sa(dp51
g3
F3.3121845703125
sg4
F0.6995693359375
sg5
F0.0489482421875
sg6
F1.261130859375
sg7
F-0.08332421875
sg8
F-0.3707763671875
sg9
F0.17992578125
sa(dp52
g3
F3.3121845703125
sg4
F0.632005859375
sg5
F0.0795732421875
sg6
F1.3943798828125
sg7
F-0.147517578125
sg8
F-0.4235302734375
sg9
F0.252611328125
sa(dp53
g3
F3.17003515625
sg4
F0.4620205078125
sg5
F0.2458017578125
sg6
F1.6057353515625
sg7
F-0.1895478515625
sg8
F-0.4753642578125
sg9
F0.278455078125
sa(dp54
g3
F3.3123916015625
sg4
F0.232515625
sg5
F0.290783203125
sg6
F1.8807685546875
sg7
F-0.0749775390625
sg8
F-0.5767607421875
sg9
F0.2085478515625
sa(dp55
g3
F3.3123916015625
sg4
F0.1919365234375
sg5
F0.31153125
sg6
F1.94323828125
sg7
F-0.1548623046875
sg8
F-0.5681171875
sg9
F0.3215986328125
sa(dp56
g3
F3.3123916015625
sg4
F0.14659375
sg5
F0.2433486328125
sg6
F2.070296875
sg7
F-0.0330908203125
sg8
F-0.623751953125
sg9
F0.2039169921875
sa(dp57
g3
F3.3123916015625
sg4
F-0.0151796875
sg5
F0.27887890625
sg6
F2.1971484375
sg7
F-0.0582841796875
sg8
F-0.6374326171875
sg9
F0.2467392578125
sa(dp58
g3
F2.941046875
sg4
F0.0266767578125
sg5
F0.576734375
sg6
F2.244232421875
sg7
F-0.109375
sg8
F-0.6429892578125
sg9
F0.2389189453125
sa(dp59
g3
F2.6810205078125
sg4
F0.0210859375
sg5
F0.6348212890625
sg6
F2.286263671875
sg7
F-0.112677734375
sg8
F-0.6665361328125
sg9
F0.144724609375
sa(dp60
g3
F2.343669921875
sg4
F-0.067611328125
sg5
F0.971125
sg6
F2.3207685546875
sg7
F-0.154140625
sg8
F-0.6458642578125
sg9
F0.1794111328125
sa(dp61
g3
F2.6530556640625
sg4
F-0.1179638671875
sg5
F0.3690234375
sg6
F2.300556640625
sg7
F-0.0774228515625
sg8
F-0.66015625
sg9
F-0.182169921875
sa(dp62
g3
F2.191734375
sg4
F-0.0066845703125
sg5
F0.9001279296875
sg6
F2.3389599609375
sg7
F-0.0824580078125
sg8
F-0.6730126953125
sg9
F-0.1813466796875
sa(dp63
g3
F2.726595703125
sg4
F-0.02698046875
sg5
F0.1196484375
sg6
F2.253328125
sg7
F-0.0251689453125
sg8
F-0.6659248046875
sg9
F-0.491345703125
sa(dp64
g3
F2.252802734375
sg4
F0.0144501953125
sg5
F0.559912109375
sg6
F2.2751376953125
sg7
F-0.05799609375
sg8
F-0.6678740234375
sg9
F-0.496388671875
sa(dp65
g3
F2.252583984375
sg4
F0.1389375
sg5
F0.530771484375
sg6
F2.1643564453125
sg7
F-0.0605859375
sg8
F-0.6478193359375
sg9
F-0.4960791015625
sa(dp66
g3
F2.252802734375
sg4
F0.127330078125
sg5
F0.62127734375
sg6
F2.136041015625
sg7
F-0.028046875
sg8
F-0.6277587890625
sg9
F-0.494330078125
sa(dp67
g3
F2.252802734375
sg4
F0.303732421875
sg5
F0.616138671875
sg6
F1.9166279296875
sg7
F-0.1206005859375
sg8
F-0.5506416015625
sg9
F-0.39780859375
sa(dp68
g3
F2.18636328125
sg4
F0.4525048828125
sg5
F1.009896484375
sg6
F1.717751953125
sg7
F-0.4628134765625
sg8
F-0.3364248046875
sg9
F-0.021072265625
sa(dp69
g3
F2.18636328125
sg4
F0.7553701171875
sg5
F1.1572626953125
sg6
F1.48979296875
sg7
F-0.660580078125
sg8
F-0.1420556640625
sg9
F0.0287275390625
sa(dp70
g3
F1.91041796875
sg4
F1.0314443359375
sg5
F1.7026982421875
sg6
F1.391185546875
sg7
F-1.0337705078125
sg8
F0.2063212890625
sg9
F0.1443134765625
sa(dp71
g3
F2.8003564453125
sg4
F0.714455078125
sg5
F0.32938671875
sg6
F1.197109375
sg7
F-0.21948828125
sg8
F-0.2932353515625
sg9
F-0.2678408203125
sa(dp72
g3
F2.343876953125
sg4
F0.74607421875
sg5
F0.8293505859375
sg6
F1.229259765625
sg7
F-0.5015419921875
sg8
F-0.1591259765625
sg9
F-0.1711650390625
sa(dp73
g3
F2.0063720703125
sg4
F0.96664453125
sg5
F1.4794423828125
sg6
F1.34716015625
sg7
F-0.9104833984375
sg8
F0.1000625
sg9
F0.0170029296875
sa(dp74
g3
F2.5793212890625
sg4
F0.4765068359375
sg5
F0.2747607421875
sg6
F1.596765625
sg7
F-0.0400029296875
sg8
F-0.4775185546875
sg9
F-0.4984404296875
sa(dp75
g3
F2.5793212890625
sg4
F0.4092666015625
sg5
F0.294888671875
sg6
F1.7246904296875
sg7
F-0.0962734375
sg8
F-0.5225673828125
sg9
F-0.4542470703125
sa(dp76
g3
F2.5772421875
sg4
F0.3445048828125
sg5
F0.25628515625
sg6
F1.808744140625
sg7
F-0.17961328125
sg8
F-0.5466279296875
sg9
F-0.412099609375
sa(dp77
g3
F2.4177919921875
sg4
F0.1548818359375
sg5
F0.444978515625
sg6
F2.0098759765625
sg7
F-0.18450390625
sg8
F-0.5800478515625
sg9
F-0.405513671875
sa(dp78
g3
F2.4177919921875
sg4
F0.0217060546875
sg5
F0.3768212890625
sg6
F2.093703125
sg7
F-0.218197265625
sg8
F-0.5855986328125
sg9
F-0.383001953125
sa(dp79
g3
F2.56979296875
sg4
F-0.09246484375
sg5
F0.0838857421875
sg6
F2.268919921875
sg7
F-0.0107763671875
sg8
F-0.6595380859375
sg9
F-0.69728515625
sa(dp80
g3
F2.0012080078125
sg4
F-0.02262890625
sg5
F0.660875
sg6
F2.2924716796875
sg7
F-0.0290576171875
sg8
F-0.6615966796875
sg9
F-0.6841318359375
sa(dp81
g3
F2.0012080078125
sg4
F0.0565009765625
sg5
F0.657595703125
sg6
F2.2084091796875
sg7
F-0.0237333984375
sg8
F-0.651626953125
sg9
F-0.66728125
sa(dp82
g3
F2.325853515625
sg4
F0.22671875
sg5
F0.3396513671875
sg6
F1.9734482421875
sg7
F-0.05741796875
sg8
F-0.5916640625
sg9
F-0.6248505859375
sa(dp83
g3
F2.325853515625
sg4
F0.2981552734375
sg5
F0.415619140625
sg6
F1.8749853515625
sg7
F-0.0954072265625
sg8
F-0.5626689453125
sg9
F-0.567408203125
sa(dp84
g3
F2.325853515625
sg4
F0.3740966796875
sg5
F0.5422626953125
sg6
F1.7015458984375
sg7
F-0.228845703125
sg8
F-0.461072265625
sg9
F-0.4059248046875
sa(dp85
g3
F2.7696923828125
sg4
F0.6204248046875
sg5
F-0.0184970703125
sg6
F1.442736328125
sg7
F-0.00473046875
sg8
F-0.4788564453125
sg9
F-0.5324638671875
sa(dp86
g3
F2.767201171875
sg4
F0.733046875
sg5
F0.00906640625
sg6
F1.2538935546875
sg7
F-0.006318359375
sg8
F-0.37561328125
sg9
F-0.5149951171875
sa(dp87
g3
F2.767201171875
sg4
F0.8751708984375
sg5
F0.0734150390625
sg6
F1.05758984375
sg7
F-0.0528076171875
sg8
F-0.2797607421875
sg9
F-0.4654453125
sa(dp88
g3
F2.747111328125
sg4
F0.746900390625
sg5
F0.079986328125
sg6
F1.0810595703125
sg7
F-0.1021748046875
sg8
F-0.2843916015625
sg9
F-0.4724365234375
sa(dp89
g3
F2.5840849609375
sg4
F0.7169345703125
sg5
F0.282572265625
sg6
F1.2256416015625
sg7
F-0.20062890625
sg8
F-0.3060927734375
sg9
F-0.4634892578125
sa(dp90
g3
F2.24203515625
sg4
F0.4851953125
sg5
F0.7045791015625
sg6
F1.525552734375
sg7
F-0.349921875
sg8
F-0.345892578125
sg9
F-0.3551396484375
sa(dp91
g3
F2.5828330078125
sg4
F0.3962392578125
sg5
F0.1671220703125
sg6
F1.688380859375
sg7
F-0.013654296875
sg8
F-0.5270888671875
sg9
F-0.65403125
sa(dp92
g3
F2.579734375
sg4
F0.390029296875
sg5
F0.1040263671875
sg6
F1.7430625
sg7
F-0.060296875
sg8
F-0.5429296875
sg9
F-0.6479658203125
sa(dp93
g3
F2.4152998046875
sg4
F0.2774453125
sg5
F0.201439453125
sg6
F1.849673828125
sg7
F-0.1298037109375
sg8
F-0.55608984375
sg9
F-0.6248505859375
sa(dp94
g3
F2.1011123046875
sg4
F0.129615234375
sg5
F0.4591416015625
sg6
F2.0791123046875
sg7
F-0.084470703125
sg8
F-0.5995810546875
sg9
F-0.714033203125
sa(dp95
g3
F2.10090625
sg4
F0.1002041015625
sg5
F0.377634765625
sg6
F2.1036748046875
sg7
F-0.1377265625
sg8
F-0.593927734375
sg9
F-0.712490234375
sa(dp96
g3
F1.9633525390625
sg4
F0.1389375
sg5
F0.4850029296875
sg6
F2.049046875
sg7
F-0.20278515625
sg8
F-0.5732626953125
sg9
F-0.6848525390625
saI2000
tp97
Rp98
.