ccollections
deque
p0
((lp1
(dp2
S'right_j6'
p3
F3.1789423828125
sS'right_j5'
p4
F0.5195263671875
sS'right_j4'
p5
F-0.439755859375
sS'right_j3'
p6
F2.1371962890625
sS'right_j2'
p7
F0.3278447265625
sS'right_j1'
p8
F-1.0259306640625
sS'right_j0'
p9
F-0.8477822265625
sa(dp10
g3
F3.12465234375
sg4
F0.787595703125
sg5
F-0.4113125
sg6
F1.5358310546875
sg7
F0.352884765625
sg8
F-0.7379033203125
sg9
F-0.6822861328125
sa(dp11
g3
F3.38989453125
sg4
F0.6518505859375
sg5
F0.63235546875
sg6
F1.706607421875
sg7
F-0.5034189453125
sg8
F-0.6078134765625
sg9
F0.8087236328125
sa(dp12
g3
F3.2456533203125
sg4
F0.9938740234375
sg5
F0.68159765625
sg6
F1.039326171875
sg7
F-0.596458984375
sg8
F-0.316884765625
sg9
F0.5462490234375
sa(dp13
g3
F3.245447265625
sg4
F0.4405107421875
sg5
F-0.2158154296875
sg6
F2.2414892578125
sg7
F0.067798828125
sg8
F-1.0902998046875
sg9
F-0.3728203125
sa(dp14
g3
F3.245447265625
sg4
F0.521384765625
sg5
F0.310498046875
sg6
F2.05699609375
sg7
F-0.350490234375
sg8
F-0.96546484375
sg9
F0.45291015625
sa(dp15
g3
F3.245447265625
sg4
F0.8766171875
sg5
F0.3803076171875
sg6
F1.34541796875
sg7
F-0.386205078125
sg8
F-0.6072998046875
sg9
F0.364029296875
sa(dp16
g3
F3.0778115234375
sg4
F0.8130048828125
sg5
F-0.136361328125
sg6
F1.5310478515625
sg7
F0.05873046875
sg8
F-0.7958916015625
sg9
F-0.316787109375
sa(dp17
g3
F3.3364306640625
sg4
F1.1026357421875
sg5
F-0.04585546875
sg6
F1.0375849609375
sg7
F-0.01294140625
sg8
F-0.4915078125
sg9
F-0.031671875
sa(dp18
g3
F3.3362236328125
sg4
F0.439064453125
sg5
F-0.0950078125
sg6
F2.2719521484375
sg7
F-0.05741796875
sg8
F-1.15591015625
sg9
F-0.0154130859375
sa(dp19
g3
F3.3362236328125
sg4
F0.609876953125
sg5
F-0.2986005859375
sg6
F1.9808203125
sg7
F0.288412109375
sg8
F-1.00546484375
sg9
F-0.49391796875
sa(dp20
g3
F3.3362236328125
sg4
F0.630546875
sg5
F0.3887255859375
sg6
F1.7040087890625
sg7
F-0.3813046875
sg8
F-0.7136357421875
sg9
F0.5116328125
sa(dp21
g3
F3.6399794921875
sg4
F0.79379296875
sg5
F0.1570517578125
sg6
F1.3961123046875
sg7
F-0.1868046875
sg8
F-0.621076171875
sg9
F0.5441904296875
sa(dp22
g3
F3.363982421875
sg4
F0.6975029296875
sg5
F-0.5131669921875
sg6
F1.944537109375
sg7
F0.5979873046875
sg8
F-0.9889091796875
sg9
F-0.9286240234375
sa(dp23
S'right_j6'
p24
F3.30969140625
sS'right_j5'
p25
F0.58548828125
sS'right_j4'
p26
F-0.3723603515625
sS'right_j3'
p27
F2.0967353515625
sS'right_j2'
p28
F0.372736328125
sS'right_j1'
p29
F-1.0857783203125
sS'right_j0'
p30
F-0.6723173828125
sa(dp31
g24
F3.314662109375
sg25
F0.6332451171875
sg26
F0.3297998046875
sg27
F1.803537109375
sg28
F-0.347611328125
sg29
F-0.7799599609375
sg30
F0.5074072265625
sa(dp32
g24
F3.34098828125
sg25
F0.7297421875
sg26
F-0.383283203125
sg27
F1.73814453125
sg28
F0.336759765625
sg29
F-0.833015625
sg30
F-0.5321552734375
sa(dp33
g24
F3.34098828125
sg25
F0.7979248046875
sg26
F0.3759951171875
sg27
F1.4126162109375
sg28
F-0.37323828125
sg29
F-0.5704833984375
sg30
F0.4537333984375
sa(dp34
S'right_j6'
p35
F3.376208984375
sS'right_j5'
p36
F0.7818115234375
sS'right_j4'
p37
F0.4583154296875
sS'right_j3'
p38
F1.28836328125
sS'right_j2'
p39
F-0.37309375
sS'right_j1'
p40
F-0.4632275390625
sS'right_j0'
p41
F0.4667197265625
sa(dp42
g35
F3.3760029296875
sg36
F0.6710615234375
sg37
F-0.1260712890625
sg38
F1.599076171875
sg39
F0.04621484375
sg40
F-0.734712890625
sg41
F-0.127859375
sa(dp43
g35
F3.3183935546875
sg36
F0.8450234375
sg37
F-0.444494140625
sg38
F1.5840341796875
sg39
F0.45116796875
sg40
F-0.7894140625
sg41
F-0.6348193359375
sa(dp44
g35
F3.2920810546875
sg36
F0.8049482421875
sg37
F0.5270791015625
sg38
F1.37062109375
sg39
F-0.464826171875
sg40
F-0.4737177734375
sg41
F0.60033984375
sa(dp45
g35
F3.1946943359375
sg36
F0.62517578125
sg37
F-0.3247578125
sg38
F1.8219091796875
sg39
F0.2799208984375
sg40
F-0.852966796875
sg41
F-0.6179619140625
sa(dp46
g35
F3.194900390625
sg36
F0.693384765625
sg37
F0.626609375
sg38
F1.636568359375
sg39
F-0.53525390625
sg40
F-0.6012275390625
sg41
F0.681953125
sa(dp47
g35
F3.2044287109375
sg36
F0.621044921875
sg37
F0.702732421875
sg38
F1.6851953125
sg39
F-0.5087431640625
sg40
F-0.59495703125
sg41
F0.736578125
saI2000
tp48
Rp49
.