(lp0
(lp1
I704
aI1009
aI536
aI587
aa(lp2
I698
aI994
aI538
aI588
aa(lp3
I693
aI979
aI539
aI590
aa(lp4
I688
aI965
aI539
aI591
aa(lp5
I683
aI950
aI540
aI593
aa(lp6
I678
aI935
aI540
aI594
aa(lp7
I673
aI920
aI540
aI596
aa(lp8
I668
aI906
aI541
aI597
aa(lp9
I663
aI891
aI541
aI598
aa(lp10
I657
aI876
aI542
aI600
aa(lp11
I652
aI861
aI542
aI601
aa(lp12
I647
aI847
aI542
aI603
aa(lp13
I642
aI832
aI543
aI604
aa(lp14
I637
aI817
aI543
aI606
aa(lp15
I632
aI802
aI544
aI607
aa(lp16
I626
aI788
aI544
aI609
aa(lp17
I621
aI773
aI545
aI610
aa(lp18
I616
aI758
aI545
aI612
aa(lp19
I611
aI743
aI546
aI613
aa(lp20
I605
aI728
aI546
aI614
aa(lp21
I600
aI714
aI546
aI616
aa(lp22
I595
aI699
aI547
aI617
aa(lp23
I590
aI684
aI547
aI619
aa(lp24
I584
aI669
aI548
aI620
aa(lp25
I579
aI655
aI548
aI622
aa(lp26
I574
aI640
aI549
aI623
aa(lp27
I569
aI625
aI549
aI625
aa(lp28
I564
aI610
aI550
aI626
aa(lp29
I559
aI596
aI550
aI628
aa(lp30
I553
aI581
aI551
aI629
aa(lp31
I548
aI567
aI551
aI630
aa(lp32
I543
aI553
aI552
aI632
aa(lp33
I538
aI539
aI552
aI633
aa(lp34
I532
aI525
aI553
aI634
aa(lp35
I527
aI511
aI553
aI636
aa(lp36
I522
aI497
aI554
aI637
aa(lp37
I517
aI483
aI554
aI638
aa(lp38
I511
aI468
aI555
aI640
aa(lp39
I506
aI455
aI555
aI641
aa(lp40
I501
aI441
aI556
aI642
aa(lp41
I495
aI426
aI556
aI644
aa(lp42
I490
aI412
aI557
aI645
aa(lp43
I485
aI398
aI557
aI646
aa(lp44
I479
aI384
aI558
aI648
aa(lp45
I474
aI370
aI558
aI649
aa(lp46
I469
aI356
aI559
aI650
aa(lp47
I463
aI342
aI559
aI652
aa(lp48
I458
aI328
aI560
aI653
aa(lp49
I452
aI314
aI560
aI655
aa(lp50
I447
aI300
aI561
aI656
aa(lp51
I441
aI286
aI561
aI657
aa(lp52
I436
aI272
aI562
aI659
aa(lp53
I431
aI258
aI562
aI660
aa(lp54
I425
aI244
aI563
aI661
aa(lp55
I420
aI230
aI563
aI663
aa(lp56
I414
aI216
aI564
aI664
aa(lp57
I409
aI202
aI564
aI665
aa(lp58
I702
aI1007
aI534
aI573
aa(lp59
I697
aI993
aI534
aI574
aa(lp60
I692
aI978
aI534
aI576
aa(lp61
I687
aI963
aI535
aI577
aa(lp62
I682
aI948
aI535
aI579
aa(lp63
I677
aI934
aI536
aI580
aa(lp64
I672
aI919
aI536
aI582
aa(lp65
I667
aI904
aI537
aI583
aa(lp66
I662
aI889
aI537
aI585
aa(lp67
I657
aI875
aI537
aI586
aa(lp68
I652
aI860
aI538
aI588
aa(lp69
I647
aI845
aI538
aI589
aa(lp70
I641
aI830
aI539
aI590
aa(lp71
I636
aI816
aI539
aI592
aa(lp72
I631
aI801
aI539
aI593
aa(lp73
I626
aI786
aI540
aI595
aa(lp74
I621
aI771
aI540
aI596
aa(lp75
I616
aI757
aI541
aI598
aa(lp76
I611
aI742
aI541
aI599
aa(lp77
I605
aI727
aI542
aI601
aa(lp78
I600
aI712
aI542
aI602
aa(lp79
I595
aI697
aI542
aI604
aa(lp80
I590
aI683
aI543
aI605
aa(lp81
I584
aI668
aI543
aI606
aa(lp82
I579
aI653
aI544
aI608
aa(lp83
I574
aI638
aI544
aI609
aa(lp84
I569
aI624
aI545
aI611
aa(lp85
I564
aI609
aI545
aI612
aa(lp86
I559
aI594
aI546
aI614
aa(lp87
I554
aI579
aI546
aI615
aa(lp88
I549
aI565
aI547
aI617
aa(lp89
I543
aI551
aI547
aI618
aa(lp90
I538
aI537
aI548
aI619
aa(lp91
I533
aI523
aI548
aI621
aa(lp92
I528
aI509
aI549
aI622
aa(lp93
I523
aI495
aI549
aI623
aa(lp94
I517
aI481
aI550
aI625
aa(lp95
I512
aI467
aI550
aI626
aa(lp96
I507
aI453
aI551
aI627
aa(lp97
I502
aI439
aI551
aI629
aa(lp98
I496
aI425
aI552
aI630
aa(lp99
I491
aI411
aI552
aI631
aa(lp100
I486
aI397
aI553
aI633
aa(lp101
I481
aI383
aI553
aI634
aa(lp102
I475
aI369
aI554
aI635
aa(lp103
I470
aI355
aI554
aI637
aa(lp104
I465
aI341
aI555
aI638
aa(lp105
I459
aI327
aI555
aI639
aa(lp106
I454
aI313
aI556
aI641
aa(lp107
I449
aI299
aI556
aI642
aa(lp108
I443
aI285
aI557
aI643
aa(lp109
I438
aI271
aI557
aI645
aa(lp110
I432
aI257
aI558
aI646
aa(lp111
I427
aI243
aI558
aI647
aa(lp112
I422
aI229
aI559
aI649
aa(lp113
I416
aI215
aI559
aI650
aa(lp114
I411
aI201
aI560
aI652
aa(lp115
I701
aI1006
aI530
aI559
aa(lp116
I696
aI991
aI530
aI561
aa(lp117
I691
aI977
aI530
aI562
aa(lp118
I686
aI962
aI531
aI564
aa(lp119
I681
aI947
aI531
aI565
aa(lp120
I676
aI932
aI532
aI566
aa(lp121
I671
aI918
aI532
aI568
aa(lp122
I666
aI903
aI532
aI569
aa(lp123
I661
aI888
aI533
aI571
aa(lp124
I656
aI873
aI533
aI572
aa(lp125
I651
aI859
aI534
aI574
aa(lp126
I646
aI844
aI534
aI575
aa(lp127
I641
aI829
aI534
aI577
aa(lp128
I636
aI814
aI535
aI578
aa(lp129
I631
aI799
aI535
aI580
aa(lp130
I626
aI785
aI536
aI581
aa(lp131
I620
aI770
aI536
aI583
aa(lp132
I615
aI755
aI537
aI584
aa(lp133
I610
aI740
aI537
aI585
aa(lp134
I605
aI726
aI537
aI587
aa(lp135
I600
aI711
aI538
aI588
aa(lp136
I595
aI696
aI538
aI590
aa(lp137
I590
aI681
aI539
aI591
aa(lp138
I584
aI667
aI539
aI593
aa(lp139
I580
aI652
aI540
aI594
aa(lp140
I574
aI637
aI540
aI596
aa(lp141
I569
aI622
aI540
aI597
aa(lp142
I564
aI607
aI541
aI599
aa(lp143
I559
aI593
aI541
aI600
aa(lp144
I554
aI578
aI542
aI601
aa(lp145
I549
aI564
aI542
aI603
aa(lp146
I544
aI550
aI543
aI604
aa(lp147
I539
aI536
aI543
aI605
aa(lp148
I534
aI522
aI544
aI607
aa(lp149
I528
aI508
aI544
aI608
aa(lp150
I523
aI494
aI545
aI609
aa(lp151
I518
aI480
aI545
aI611
aa(lp152
I513
aI466
aI546
aI612
aa(lp153
I508
aI452
aI546
aI613
aa(lp154
I503
aI438
aI547
aI615
aa(lp155
I497
aI424
aI547
aI616
aa(lp156
I492
aI410
aI548
aI618
aa(lp157
I487
aI396
aI548
aI619
aa(lp158
I482
aI382
aI549
aI620
aa(lp159
I477
aI368
aI549
aI622
aa(lp160
I471
aI354
aI550
aI623
aa(lp161
I466
aI340
aI550
aI624
aa(lp162
I461
aI326
aI551
aI626
aa(lp163
I455
aI312
aI551
aI627
aa(lp164
I450
aI298
aI552
aI628
aa(lp165
I445
aI284
aI552
aI630
aa(lp166
I439
aI270
aI553
aI631
aa(lp167
I434
aI256
aI553
aI632
aa(lp168
I429
aI242
aI554
aI634
aa(lp169
I423
aI228
aI554
aI635
aa(lp170
I418
aI214
aI555
aI636
aa(lp171
I413
aI200
aI555
aI638
aa(lp172
I700
aI1005
aI526
aI545
aa(lp173
I695
aI990
aI526
aI547
aa(lp174
I690
aI975
aI526
aI548
aa(lp175
I685
aI961
aI527
aI550
aa(lp176
I680
aI946
aI527
aI551
aa(lp177
I675
aI931
aI528
aI553
aa(lp178
I670
aI916
aI528
aI554
aa(lp179
I665
aI902
aI528
aI556
aa(lp180
I660
aI887
aI529
aI557
aa(lp181
I655
aI872
aI529
aI559
aa(lp182
I650
aI857
aI530
aI560
aa(lp183
I645
aI842
aI530
aI561
aa(lp184
I640
aI828
aI530
aI563
aa(lp185
I635
aI813
aI531
aI564
aa(lp186
I630
aI798
aI531
aI566
aa(lp187
I625
aI783
aI532
aI567
aa(lp188
I620
aI769
aI532
aI569
aa(lp189
I615
aI754
aI532
aI570
aa(lp190
I610
aI739
aI533
aI572
aa(lp191
I605
aI724
aI533
aI573
aa(lp192
I600
aI709
aI534
aI575
aa(lp193
I595
aI695
aI534
aI576
aa(lp194
I590
aI680
aI534
aI578
aa(lp195
I585
aI665
aI535
aI579
aa(lp196
I579
aI650
aI535
aI580
aa(lp197
I574
aI636
aI536
aI582
aa(lp198
I570
aI621
aI536
aI583
aa(lp199
I564
aI606
aI537
aI585
aa(lp200
I560
aI591
aI537
aI586
aa(lp201
I554
aI576
aI538
aI588
aa(lp202
I550
aI562
aI538
aI589
aa(lp203
I544
aI548
aI539
aI590
aa(lp204
I539
aI534
aI539
aI592
aa(lp205
I534
aI520
aI540
aI593
aa(lp206
I529
aI506
aI540
aI594
aa(lp207
I524
aI492
aI541
aI596
aa(lp208
I519
aI478
aI541
aI597
aa(lp209
I514
aI464
aI541
aI598
aa(lp210
I509
aI450
aI542
aI600
aa(lp211
I503
aI436
aI542
aI601
aa(lp212
I499
aI422
aI543
aI602
aa(lp213
I493
aI408
aI543
aI604
aa(lp214
I488
aI394
aI544
aI605
aa(lp215
I483
aI380
aI544
aI606
aa(lp216
I478
aI366
aI545
aI608
aa(lp217
I473
aI352
aI545
aI609
aa(lp218
I467
aI338
aI546
aI610
aa(lp219
I462
aI324
aI546
aI612
aa(lp220
I457
aI310
aI547
aI613
aa(lp221
I452
aI296
aI547
aI614
aa(lp222
I446
aI282
aI548
aI616
aa(lp223
I441
aI268
aI548
aI617
aa(lp224
I436
aI254
aI549
aI619
aa(lp225
I430
aI240
aI549
aI620
aa(lp226
I425
aI226
aI550
aI621
aa(lp227
I420
aI212
aI550
aI623
aa(lp228
I415
aI198
aI551
aI624
aa(lp229
I699
aI1004
aI522
aI532
aa(lp230
I694
aI989
aI522
aI533
aa(lp231
I689
aI974
aI522
aI535
aa(lp232
I684
aI959
aI523
aI536
aa(lp233
I679
aI944
aI523
aI538
aa(lp234
I674
aI930
aI524
aI539
aa(lp235
I669
aI915
aI524
aI540
aa(lp236
I665
aI900
aI524
aI542
aa(lp237
I660
aI885
aI525
aI543
aa(lp238
I655
aI871
aI525
aI545
aa(lp239
I650
aI856
aI526
aI546
aa(lp240
I645
aI841
aI526
aI548
aa(lp241
I640
aI826
aI526
aI549
aa(lp242
I635
aI811
aI527
aI551
aa(lp243
I630
aI797
aI527
aI552
aa(lp244
I625
aI782
aI528
aI554
aa(lp245
I620
aI767
aI528
aI555
aa(lp246
I615
aI752
aI528
aI556
aa(lp247
I610
aI738
aI529
aI558
aa(lp248
I605
aI723
aI529
aI559
aa(lp249
I600
aI708
aI530
aI561
aa(lp250
I595
aI693
aI530
aI562
aa(lp251
I590
aI678
aI530
aI564
aa(lp252
I585
aI664
aI531
aI565
aa(lp253
I580
aI649
aI531
aI567
aa(lp254
I575
aI634
aI532
aI568
aa(lp255
I570
aI619
aI532
aI570
aa(lp256
I565
aI605
aI533
aI571
aa(lp257
I560
aI590
aI533
aI573
aa(lp258
I555
aI575
aI533
aI574
aa(lp259
I550
aI561
aI534
aI575
aa(lp260
I545
aI547
aI534
aI577
aa(lp261
I540
aI533
aI535
aI578
aa(lp262
I535
aI519
aI535
aI579
aa(lp263
I530
aI505
aI536
aI581
aa(lp264
I525
aI491
aI536
aI582
aa(lp265
I520
aI477
aI537
aI583
aa(lp266
I515
aI463
aI537
aI585
aa(lp267
I510
aI449
aI538
aI586
aa(lp268
I504
aI435
aI538
aI587
aa(lp269
I499
aI421
aI539
aI589
aa(lp270
I494
aI407
aI539
aI590
aa(lp271
I489
aI393
aI540
aI591
aa(lp272
I484
aI379
aI540
aI593
aa(lp273
I479
aI365
aI540
aI594
aa(lp274
I474
aI351
aI541
aI595
aa(lp275
I469
aI337
aI541
aI597
aa(lp276
I463
aI323
aI542
aI598
aa(lp277
I458
aI309
aI542
aI599
aa(lp278
I453
aI295
aI543
aI601
aa(lp279
I448
aI281
aI543
aI602
aa(lp280
I443
aI267
aI544
aI603
aa(lp281
I438
aI253
aI544
aI605
aa(lp282
I432
aI239
aI545
aI606
aa(lp283
I427
aI225
aI545
aI607
aa(lp284
I422
aI211
aI546
aI609
aa(lp285
I417
aI197
aI546
aI610
aa(lp286
I698
aI1002
aI518
aI518
aa(lp287
I693
aI987
aI518
aI519
aa(lp288
I688
aI973
aI519
aI521
aa(lp289
I683
aI958
aI519
aI522
aa(lp290
I678
aI943
aI519
aI524
aa(lp291
I674
aI928
aI520
aI525
aa(lp292
I669
aI914
aI520
aI527
aa(lp293
I664
aI899
aI521
aI528
aa(lp294
I659
aI884
aI521
aI530
aa(lp295
I654
aI869
aI521
aI531
aa(lp296
I649
aI854
aI522
aI533
aa(lp297
I644
aI840
aI522
aI534
aa(lp298
I639
aI825
aI522
aI535
aa(lp299
I634
aI810
aI523
aI537
aa(lp300
I629
aI795
aI523
aI538
aa(lp301
I625
aI781
aI524
aI540
aa(lp302
I620
aI766
aI524
aI541
aa(lp303
I615
aI751
aI524
aI543
aa(lp304
I610
aI736
aI525
aI544
aa(lp305
I605
aI721
aI525
aI546
aa(lp306
I600
aI707
aI526
aI547
aa(lp307
I595
aI692
aI526
aI549
aa(lp308
I590
aI677
aI526
aI550
aa(lp309
I585
aI662
aI527
aI551
aa(lp310
I580
aI647
aI527
aI553
aa(lp311
I575
aI633
aI528
aI554
aa(lp312
I570
aI618
aI528
aI556
aa(lp313
I565
aI603
aI529
aI557
aa(lp314
I560
aI588
aI529
aI559
aa(lp315
I555
aI574
aI529
aI560
aa(lp316
I550
aI560
aI530
aI562
aa(lp317
I545
aI546
aI530
aI563
aa(lp318
I541
aI532
aI531
aI564
aa(lp319
I536
aI518
aI531
aI566
aa(lp320
I530
aI504
aI532
aI567
aa(lp321
I526
aI490
aI532
aI568
aa(lp322
I520
aI476
aI533
aI570
aa(lp323
I515
aI462
aI533
aI571
aa(lp324
I510
aI448
aI534
aI572
aa(lp325
I506
aI434
aI534
aI574
aa(lp326
I500
aI420
aI534
aI575
aa(lp327
I495
aI406
aI535
aI576
aa(lp328
I490
aI392
aI535
aI578
aa(lp329
I485
aI378
aI536
aI579
aa(lp330
I480
aI364
aI536
aI580
aa(lp331
I475
aI350
aI537
aI582
aa(lp332
I470
aI336
aI537
aI583
aa(lp333
I465
aI322
aI538
aI584
aa(lp334
I460
aI308
aI538
aI586
aa(lp335
I455
aI294
aI539
aI587
aa(lp336
I449
aI280
aI539
aI588
aa(lp337
I444
aI266
aI540
aI590
aa(lp338
I439
aI252
aI540
aI591
aa(lp339
I434
aI238
aI541
aI592
aa(lp340
I429
aI224
aI541
aI594
aa(lp341
I424
aI210
aI541
aI595
aa(lp342
I418
aI196
aI542
aI596
aa(lp343
I697
aI1001
aI514
aI504
aa(lp344
I692
aI986
aI514
aI506
aa(lp345
I687
aI971
aI515
aI507
aa(lp346
I682
aI957
aI515
aI509
aa(lp347
I678
aI942
aI516
aI510
aa(lp348
I673
aI927
aI516
aI512
aa(lp349
I668
aI912
aI516
aI513
aa(lp350
I663
aI897
aI517
aI514
aa(lp351
I658
aI883
aI517
aI516
aa(lp352
I653
aI868
aI517
aI517
aa(lp353
I649
aI853
aI518
aI519
aa(lp354
I644
aI838
aI518
aI520
aa(lp355
I639
aI824
aI519
aI522
aa(lp356
I634
aI809
aI519
aI523
aa(lp357
I629
aI794
aI519
aI525
aa(lp358
I624
aI779
aI520
aI526
aa(lp359
I619
aI764
aI520
aI527
aa(lp360
I614
aI750
aI520
aI529
aa(lp361
I610
aI735
aI521
aI530
aa(lp362
I604
aI720
aI521
aI532
aa(lp363
I600
aI705
aI522
aI533
aa(lp364
I595
aI690
aI522
aI535
aa(lp365
I590
aI676
aI522
aI536
aa(lp366
I585
aI661
aI523
aI538
aa(lp367
I580
aI646
aI523
aI539
aa(lp368
I575
aI631
aI524
aI541
aa(lp369
I570
aI616
aI524
aI542
aa(lp370
I565
aI602
aI525
aI544
aa(lp371
I560
aI587
aI525
aI545
aa(lp372
I556
aI572
aI525
aI546
aa(lp373
I551
aI558
aI526
aI548
aa(lp374
I546
aI544
aI526
aI549
aa(lp375
I541
aI530
aI527
aI551
aa(lp376
I536
aI516
aI527
aI552
aa(lp377
I531
aI502
aI528
aI553
aa(lp378
I526
aI488
aI528
aI555
aa(lp379
I521
aI474
aI528
aI556
aa(lp380
I516
aI460
aI529
aI557
aa(lp381
I511
aI446
aI529
aI559
aa(lp382
I506
aI432
aI530
aI560
aa(lp383
I501
aI418
aI530
aI561
aa(lp384
I496
aI404
aI531
aI562
aa(lp385
I491
aI390
aI531
aI564
aa(lp386
I486
aI376
aI532
aI565
aa(lp387
I481
aI362
aI532
aI567
aa(lp388
I476
aI348
aI533
aI568
aa(lp389
I471
aI334
aI533
aI569
aa(lp390
I466
aI320
aI534
aI570
aa(lp391
I461
aI306
aI534
aI572
aa(lp392
I456
aI292
aI534
aI573
aa(lp393
I451
aI278
aI535
aI575
aa(lp394
I446
aI264
aI535
aI576
aa(lp395
I441
aI251
aI536
aI577
aa(lp396
I436
aI236
aI536
aI579
aa(lp397
I430
aI222
aI537
aI580
aa(lp398
I425
aI209
aI537
aI581
aa(lp399
I420
aI195
aI538
aI583
aa(lp400
I695
aI1000
aI510
aI491
aa(lp401
I691
aI985
aI511
aI492
aa(lp402
I686
aI970
aI511
aI493
aa(lp403
I681
aI955
aI511
aI495
aa(lp404
I677
aI940
aI512
aI496
aa(lp405
I672
aI926
aI512
aI498
aa(lp406
I667
aI911
aI513
aI499
aa(lp407
I662
aI896
aI513
aI501
aa(lp408
I658
aI881
aI513
aI502
aa(lp409
I653
aI867
aI514
aI504
aa(lp410
I648
aI852
aI514
aI505
aa(lp411
I643
aI837
aI514
aI506
aa(lp412
I638
aI822
aI515
aI508
aa(lp413
I634
aI807
aI515
aI509
aa(lp414
I629
aI793
aI516
aI511
aa(lp415
I624
aI778
aI516
aI512
aa(lp416
I619
aI763
aI516
aI514
aa(lp417
I614
aI748
aI517
aI515
aa(lp418
I609
aI733
aI517
aI517
aa(lp419
I604
aI719
aI517
aI518
aa(lp420
I600
aI704
aI518
aI520
aa(lp421
I595
aI689
aI518
aI521
aa(lp422
I590
aI674
aI519
aI523
aa(lp423
I585
aI659
aI519
aI524
aa(lp424
I580
aI645
aI519
aI525
aa(lp425
I575
aI630
aI520
aI527
aa(lp426
I570
aI615
aI520
aI528
aa(lp427
I566
aI600
aI521
aI530
aa(lp428
I561
aI586
aI521
aI531
aa(lp429
I556
aI571
aI521
aI533
aa(lp430
I551
aI557
aI522
aI534
aa(lp431
I546
aI543
aI522
aI535
aa(lp432
I541
aI529
aI523
aI537
aa(lp433
I537
aI515
aI523
aI538
aa(lp434
I532
aI501
aI524
aI539
aa(lp435
I527
aI487
aI524
aI541
aa(lp436
I522
aI473
aI525
aI542
aa(lp437
I517
aI459
aI525
aI543
aa(lp438
I512
aI445
aI525
aI545
aa(lp439
I507
aI431
aI526
aI546
aa(lp440
I502
aI417
aI526
aI547
aa(lp441
I497
aI403
aI527
aI549
aa(lp442
I492
aI389
aI527
aI550
aa(lp443
I487
aI375
aI528
aI551
aa(lp444
I483
aI361
aI528
aI553
aa(lp445
I477
aI347
aI529
aI554
aa(lp446
I472
aI333
aI529
aI555
aa(lp447
I467
aI319
aI530
aI557
aa(lp448
I463
aI305
aI530
aI558
aa(lp449
I457
aI291
aI530
aI559
aa(lp450
I452
aI277
aI531
aI561
aa(lp451
I447
aI263
aI531
aI562
aa(lp452
I442
aI249
aI532
aI563
aa(lp453
I437
aI235
aI532
aI565
aa(lp454
I432
aI221
aI533
aI566
aa(lp455
I427
aI207
aI533
aI567
aa(lp456
I422
aI193
aI534
aI569
aa(lp457
I694
aI998
aI507
aI477
aa(lp458
I690
aI983
aI507
aI478
aa(lp459
I685
aI969
aI508
aI480
aa(lp460
I680
aI954
aI508
aI481
aa(lp461
I676
aI939
aI508
aI483
aa(lp462
I671
aI924
aI509
aI484
aa(lp463
I666
aI910
aI509
aI485
aa(lp464
I662
aI895
aI509
aI487
aa(lp465
I657
aI880
aI510
aI488
aa(lp466
I652
aI865
aI510
aI490
aa(lp467
I647
aI850
aI510
aI491
aa(lp468
I643
aI836
aI511
aI493
aa(lp469
I638
aI821
aI511
aI494
aa(lp470
I633
aI806
aI511
aI496
aa(lp471
I628
aI791
aI512
aI497
aa(lp472
I624
aI776
aI512
aI499
aa(lp473
I619
aI762
aI513
aI500
aa(lp474
I614
aI747
aI513
aI501
aa(lp475
I609
aI732
aI513
aI503
aa(lp476
I604
aI717
aI514
aI504
aa(lp477
I600
aI702
aI514
aI506
aa(lp478
I595
aI688
aI514
aI507
aa(lp479
I590
aI673
aI515
aI509
aa(lp480
I585
aI658
aI515
aI510
aa(lp481
I580
aI643
aI516
aI512
aa(lp482
I575
aI628
aI516
aI513
aa(lp483
I571
aI614
aI516
aI515
aa(lp484
I566
aI599
aI517
aI516
aa(lp485
I561
aI584
aI517
aI518
aa(lp486
I556
aI569
aI518
aI519
aa(lp487
I551
aI555
aI518
aI520
aa(lp488
I547
aI541
aI519
aI522
aa(lp489
I542
aI527
aI519
aI523
aa(lp490
I537
aI513
aI519
aI524
aa(lp491
I532
aI499
aI520
aI526
aa(lp492
I527
aI485
aI520
aI527
aa(lp493
I523
aI471
aI521
aI528
aa(lp494
I518
aI457
aI521
aI530
aa(lp495
I513
aI443
aI522
aI531
aa(lp496
I508
aI430
aI522
aI532
aa(lp497
I503
aI416
aI522
aI534
aa(lp498
I498
aI402
aI523
aI535
aa(lp499
I493
aI388
aI523
aI536
aa(lp500
I488
aI374
aI524
aI538
aa(lp501
I484
aI360
aI524
aI539
aa(lp502
I479
aI346
aI525
aI540
aa(lp503
I474
aI332
aI525
aI542
aa(lp504
I469
aI318
aI526
aI543
aa(lp505
I464
aI304
aI526
aI544
aa(lp506
I459
aI290
aI526
aI546
aa(lp507
I454
aI276
aI527
aI547
aa(lp508
I449
aI262
aI527
aI548
aa(lp509
I444
aI248
aI528
aI550
aa(lp510
I439
aI234
aI528
aI551
aa(lp511
I434
aI220
aI529
aI552
aa(lp512
I429
aI206
aI529
aI554
aa(lp513
I424
aI192
aI530
aI555
aa(lp514
I693
aI997
aI503
aI463
aa(lp515
I689
aI982
aI504
aI464
aa(lp516
I684
aI967
aI504
aI465
aa(lp517
I680
aI952
aI504
aI467
aa(lp518
I675
aI938
aI505
aI468
aa(lp519
I670
aI923
aI505
aI470
aa(lp520
I666
aI908
aI505
aI471
aa(lp521
I661
aI893
aI506
aI473
aa(lp522
I656
aI878
aI506
aI474
aa(lp523
I652
aI864
aI506
aI476
aa(lp524
I647
aI849
aI507
aI477
aa(lp525
I642
aI834
aI507
aI479
aa(lp526
I637
aI819
aI508
aI480
aa(lp527
I633
aI804
aI508
aI481
aa(lp528
I628
aI790
aI508
aI483
aa(lp529
I623
aI775
aI509
aI484
aa(lp530
I618
aI760
aI509
aI486
aa(lp531
I614
aI745
aI509
aI487
aa(lp532
I609
aI731
aI510
aI489
aa(lp533
I604
aI716
aI510
aI490
aa(lp534
I599
aI701
aI510
aI492
aa(lp535
I595
aI686
aI511
aI493
aa(lp536
I590
aI671
aI511
aI495
aa(lp537
I585
aI657
aI511
aI496
aa(lp538
I580
aI642
aI512
aI497
aa(lp539
I576
aI627
aI512
aI499
aa(lp540
I571
aI612
aI513
aI500
aa(lp541
I566
aI597
aI513
aI502
aa(lp542
I561
aI583
aI513
aI503
aa(lp543
I557
aI568
aI514
aI505
aa(lp544
I552
aI554
aI514
aI506
aa(lp545
I547
aI540
aI515
aI507
aa(lp546
I542
aI526
aI515
aI509
aa(lp547
I538
aI512
aI516
aI510
aa(lp548
I533
aI498
aI516
aI511
aa(lp549
I528
aI484
aI517
aI513
aa(lp550
I523
aI470
aI517
aI514
aa(lp551
I518
aI456
aI517
aI515
aa(lp552
I514
aI442
aI518
aI517
aa(lp553
I509
aI428
aI518
aI518
aa(lp554
I504
aI414
aI519
aI519
aa(lp555
I499
aI400
aI519
aI521
aa(lp556
I494
aI386
aI520
aI522
aa(lp557
I489
aI372
aI520
aI524
aa(lp558
I485
aI358
aI520
aI525
aa(lp559
I480
aI344
aI521
aI526
aa(lp560
I475
aI330
aI521
aI527
aa(lp561
I470
aI316
aI522
aI529
aa(lp562
I465
aI302
aI522
aI530
aa(lp563
I460
aI288
aI523
aI532
aa(lp564
I455
aI275
aI523
aI533
aa(lp565
I450
aI261
aI523
aI534
aa(lp566
I445
aI247
aI524
aI536
aa(lp567
I440
aI233
aI524
aI537
aa(lp568
I435
aI219
aI525
aI538
aa(lp569
I430
aI205
aI525
aI540
aa(lp570
I425
aI191
aI526
aI541
aa(lp571
I692
aI995
aI500
aI448
aa(lp572
I688
aI980
aI500
aI449
aa(lp573
I683
aI966
aI500
aI451
aa(lp574
I679
aI951
aI501
aI452
aa(lp575
I674
aI936
aI501
aI454
aa(lp576
I670
aI921
aI502
aI455
aa(lp577
I665
aI906
aI502
aI457
aa(lp578
I660
aI892
aI502
aI458
aa(lp579
I656
aI877
aI503
aI460
aa(lp580
I651
aI862
aI503
aI461
aa(lp581
I646
aI847
aI503
aI463
aa(lp582
I642
aI833
aI504
aI464
aa(lp583
I637
aI818
aI504
aI465
aa(lp584
I632
aI803
aI504
aI467
aa(lp585
I628
aI788
aI505
aI468
aa(lp586
I623
aI773
aI505
aI470
aa(lp587
I618
aI759
aI505
aI471
aa(lp588
I613
aI744
aI506
aI473
aa(lp589
I609
aI729
aI506
aI474
aa(lp590
I604
aI714
aI506
aI476
aa(lp591
I599
aI700
aI507
aI477
aa(lp592
I595
aI685
aI507
aI479
aa(lp593
I590
aI670
aI508
aI480
aa(lp594
I585
aI655
aI508
aI482
aa(lp595
I580
aI640
aI508
aI483
aa(lp596
I576
aI626
aI509
aI484
aa(lp597
I571
aI611
aI509
aI486
aa(lp598
I566
aI596
aI509
aI487
aa(lp599
I562
aI581
aI510
aI489
aa(lp600
I557
aI566
aI510
aI490
aa(lp601
I552
aI552
aI511
aI492
aa(lp602
I548
aI538
aI511
aI493
aa(lp603
I543
aI524
aI512
aI494
aa(lp604
I538
aI510
aI512
aI496
aa(lp605
I533
aI496
aI512
aI497
aa(lp606
I529
aI483
aI513
aI498
aa(lp607
I524
aI469
aI513
aI500
aa(lp608
I519
aI455
aI514
aI501
aa(lp609
I515
aI441
aI514
aI502
aa(lp610
I510
aI427
aI515
aI504
aa(lp611
I505
aI413
aI515
aI505
aa(lp612
I500
aI399
aI515
aI506
aa(lp613
I495
aI385
aI516
aI508
aa(lp614
I491
aI371
aI516
aI509
aa(lp615
I486
aI357
aI517
aI510
aa(lp616
I481
aI343
aI517
aI512
aa(lp617
I476
aI329
aI517
aI513
aa(lp618
I471
aI315
aI518
aI514
aa(lp619
I466
aI301
aI518
aI516
aa(lp620
I462
aI287
aI519
aI517
aa(lp621
I457
aI273
aI519
aI518
aa(lp622
I452
aI259
aI520
aI520
aa(lp623
I447
aI245
aI520
aI521
aa(lp624
I442
aI231
aI520
aI522
aa(lp625
I437
aI217
aI521
aI524
aa(lp626
I432
aI203
aI521
aI525
aa(lp627
I427
aI189
aI522
aI527
aa(lp628
I692
aI993
aI496
aI433
aa(lp629
I687
aI979
aI497
aI435
aa(lp630
I682
aI964
aI497
aI436
aa(lp631
I678
aI949
aI497
aI438
aa(lp632
I673
aI934
aI498
aI439
aa(lp633
I669
aI920
aI498
aI441
aa(lp634
I664
aI905
aI499
aI442
aa(lp635
I660
aI890
aI499
aI444
aa(lp636
I655
aI875
aI499
aI445
aa(lp637
I650
aI860
aI499
aI447
aa(lp638
I646
aI846
aI500
aI448
aa(lp639
I641
aI831
aI500
aI450
aa(lp640
I637
aI816
aI500
aI451
aa(lp641
I632
aI801
aI501
aI452
aa(lp642
I627
aI787
aI501
aI454
aa(lp643
I623
aI772
aI501
aI455
aa(lp644
I618
aI757
aI502
aI457
aa(lp645
I613
aI742
aI502
aI458
aa(lp646
I608
aI728
aI503
aI460
aa(lp647
I604
aI713
aI503
aI461
aa(lp648
I599
aI698
aI503
aI463
aa(lp649
I594
aI683
aI504
aI464
aa(lp650
I590
aI668
aI504
aI466
aa(lp651
I585
aI654
aI504
aI467
aa(lp652
I580
aI639
aI505
aI468
aa(lp653
I576
aI624
aI505
aI470
aa(lp654
I571
aI609
aI505
aI471
aa(lp655
I566
aI594
aI506
aI473
aa(lp656
I562
aI580
aI506
aI474
aa(lp657
I557
aI565
aI507
aI476
aa(lp658
I553
aI551
aI507
aI477
aa(lp659
I548
aI537
aI507
aI478
aa(lp660
I543
aI523
aI508
aI480
aa(lp661
I539
aI509
aI508
aI481
aa(lp662
I534
aI495
aI509
aI482
aa(lp663
I529
aI481
aI509
aI484
aa(lp664
I525
aI467
aI510
aI485
aa(lp665
I520
aI453
aI510
aI487
aa(lp666
I515
aI439
aI510
aI488
aa(lp667
I511
aI425
aI511
aI489
aa(lp668
I506
aI411
aI511
aI491
aa(lp669
I501
aI397
aI512
aI492
aa(lp670
I496
aI383
aI512
aI493
aa(lp671
I492
aI370
aI512
aI495
aa(lp672
I487
aI356
aI513
aI496
aa(lp673
I482
aI342
aI513
aI497
aa(lp674
I477
aI328
aI514
aI499
aa(lp675
I472
aI314
aI514
aI500
aa(lp676
I468
aI300
aI515
aI501
aa(lp677
I463
aI286
aI515
aI503
aa(lp678
I458
aI272
aI515
aI504
aa(lp679
I453
aI258
aI516
aI505
aa(lp680
I448
aI244
aI516
aI507
aa(lp681
I443
aI230
aI517
aI508
aa(lp682
I439
aI216
aI517
aI510
aa(lp683
I434
aI202
aI517
aI511
aa(lp684
I429
aI188
aI518
aI512
aa(lp685
I691
aI992
aI493
aI419
aa(lp686
I686
aI977
aI493
aI420
aa(lp687
I682
aI962
aI494
aI422
aa(lp688
I677
aI947
aI494
aI423
aa(lp689
I673
aI933
aI494
aI425
aa(lp690
I668
aI918
aI495
aI426
aa(lp691
I664
aI903
aI495
aI428
aa(lp692
I659
aI888
aI495
aI429
aa(lp693
I654
aI874
aI496
aI431
aa(lp694
I650
aI859
aI496
aI432
aa(lp695
I645
aI844
aI496
aI434
aa(lp696
I641
aI829
aI497
aI435
aa(lp697
I636
aI815
aI497
aI437
aa(lp698
I632
aI800
aI497
aI438
aa(lp699
I627
aI785
aI498
aI439
aa(lp700
I622
aI770
aI498
aI441
aa(lp701
I618
aI756
aI498
aI442
aa(lp702
I613
aI741
aI499
aI444
aa(lp703
I608
aI726
aI499
aI445
aa(lp704
I604
aI711
aI499
aI447
aa(lp705
I599
aI696
aI500
aI448
aa(lp706
I594
aI682
aI500
aI450
aa(lp707
I590
aI667
aI500
aI451
aa(lp708
I585
aI652
aI501
aI453
aa(lp709
I580
aI637
aI501
aI454
aa(lp710
I576
aI623
aI501
aI455
aa(lp711
I571
aI608
aI502
aI457
aa(lp712
I567
aI593
aI502
aI458
aa(lp713
I562
aI578
aI503
aI460
aa(lp714
I558
aI564
aI503
aI461
aa(lp715
I553
aI549
aI504
aI463
aa(lp716
I548
aI535
aI504
aI464
aa(lp717
I544
aI522
aI504
aI465
aa(lp718
I539
aI508
aI505
aI467
aa(lp719
I535
aI494
aI505
aI468
aa(lp720
I530
aI480
aI506
aI469
aa(lp721
I525
aI466
aI506
aI471
aa(lp722
I521
aI452
aI506
aI472
aa(lp723
I516
aI438
aI507
aI473
aa(lp724
I511
aI424
aI507
aI475
aa(lp725
I507
aI410
aI508
aI476
aa(lp726
I502
aI396
aI508
aI478
aa(lp727
I497
aI382
aI508
aI479
aa(lp728
I492
aI368
aI509
aI480
aa(lp729
I488
aI354
aI509
aI482
aa(lp730
I483
aI340
aI510
aI483
aa(lp731
I478
aI326
aI510
aI484
aa(lp732
I474
aI312
aI510
aI486
aa(lp733
I469
aI298
aI511
aI487
aa(lp734
I464
aI285
aI511
aI488
aa(lp735
I459
aI271
aI512
aI490
aa(lp736
I454
aI257
aI512
aI491
aa(lp737
I450
aI243
aI513
aI492
aa(lp738
I445
aI229
aI513
aI494
aa(lp739
I440
aI215
aI513
aI495
aa(lp740
I435
aI201
aI514
aI497
aa(lp741
I430
aI187
aI514
aI498
aa(lp742
I690
aI990
aI490
aI405
aa(lp743
I685
aI975
aI490
aI406
aa(lp744
I681
aI961
aI490
aI408
aa(lp745
I676
aI946
aI491
aI409
aa(lp746
I672
aI931
aI491
aI410
aa(lp747
I667
aI916
aI491
aI412
aa(lp748
I663
aI902
aI492
aI413
aa(lp749
I658
aI887
aI492
aI415
aa(lp750
I654
aI872
aI492
aI416
aa(lp751
I649
aI857
aI493
aI418
aa(lp752
I645
aI843
aI493
aI419
aa(lp753
I640
aI828
aI493
aI421
aa(lp754
I636
aI813
aI494
aI422
aa(lp755
I631
aI798
aI494
aI424
aa(lp756
I626
aI784
aI494
aI425
aa(lp757
I622
aI769
aI495
aI426
aa(lp758
I617
aI754
aI495
aI428
aa(lp759
I613
aI739
aI495
aI429
aa(lp760
I608
aI725
aI496
aI431
aa(lp761
I604
aI710
aI496
aI432
aa(lp762
I599
aI695
aI496
aI434
aa(lp763
I594
aI680
aI497
aI435
aa(lp764
I590
aI665
aI497
aI437
aa(lp765
I585
aI651
aI497
aI438
aa(lp766
I581
aI636
aI498
aI439
aa(lp767
I576
aI621
aI498
aI441
aa(lp768
I572
aI606
aI499
aI442
aa(lp769
I567
aI592
aI499
aI444
aa(lp770
I563
aI577
aI499
aI445
aa(lp771
I558
aI562
aI500
aI447
aa(lp772
I553
aI548
aI500
aI448
aa(lp773
I549
aI534
aI500
aI449
aa(lp774
I544
aI520
aI501
aI451
aa(lp775
I540
aI506
aI501
aI452
aa(lp776
I535
aI492
aI502
aI454
aa(lp777
I531
aI478
aI502
aI455
aa(lp778
I526
aI464
aI502
aI456
aa(lp779
I521
aI450
aI503
aI458
aa(lp780
I517
aI436
aI503
aI459
aa(lp781
I512
aI423
aI504
aI460
aa(lp782
I507
aI409
aI504
aI462
aa(lp783
I503
aI395
aI505
aI463
aa(lp784
I498
aI381
aI505
aI464
aa(lp785
I494
aI367
aI505
aI466
aa(lp786
I489
aI353
aI506
aI467
aa(lp787
I484
aI339
aI506
aI469
aa(lp788
I479
aI325
aI506
aI470
aa(lp789
I475
aI311
aI507
aI471
aa(lp790
I470
aI297
aI507
aI473
aa(lp791
I465
aI283
aI508
aI474
aa(lp792
I461
aI269
aI508
aI475
aa(lp793
I456
aI255
aI508
aI477
aa(lp794
I451
aI241
aI509
aI478
aa(lp795
I446
aI227
aI509
aI480
aa(lp796
I442
aI213
aI510
aI481
aa(lp797
I437
aI200
aI510
aI482
aa(lp798
I432
aI186
aI511
aI484
aa(lp799
I689
aI988
aI487
aI390
aa(lp800
I684
aI974
aI487
aI392
aa(lp801
I680
aI959
aI487
aI393
aa(lp802
I675
aI944
aI488
aI395
aa(lp803
I671
aI930
aI488
aI396
aa(lp804
I667
aI915
aI488
aI397
aa(lp805
I662
aI900
aI489
aI399
aa(lp806
I658
aI885
aI489
aI400
aa(lp807
I653
aI871
aI489
aI402
aa(lp808
I649
aI856
aI489
aI403
aa(lp809
I644
aI841
aI490
aI405
aa(lp810
I640
aI826
aI490
aI406
aa(lp811
I635
aI812
aI490
aI408
aa(lp812
I631
aI797
aI491
aI409
aa(lp813
I626
aI782
aI491
aI410
aa(lp814
I622
aI767
aI491
aI412
aa(lp815
I617
aI753
aI492
aI413
aa(lp816
I613
aI738
aI492
aI415
aa(lp817
I608
aI723
aI492
aI416
aa(lp818
I604
aI708
aI493
aI418
aa(lp819
I599
aI693
aI493
aI419
aa(lp820
I594
aI679
aI493
aI421
aa(lp821
I590
aI664
aI494
aI422
aa(lp822
I585
aI649
aI494
aI424
aa(lp823
I581
aI634
aI494
aI425
aa(lp824
I576
aI620
aI495
aI426
aa(lp825
I572
aI605
aI495
aI428
aa(lp826
I567
aI590
aI496
aI429
aa(lp827
I563
aI575
aI496
aI431
aa(lp828
I558
aI561
aI496
aI432
aa(lp829
I554
aI547
aI497
aI434
aa(lp830
I549
aI533
aI497
aI435
aa(lp831
I545
aI519
aI497
aI436
aa(lp832
I540
aI505
aI498
aI438
aa(lp833
I536
aI491
aI498
aI439
aa(lp834
I531
aI477
aI499
aI441
aa(lp835
I527
aI463
aI499
aI442
aa(lp836
I522
aI449
aI499
aI443
aa(lp837
I517
aI435
aI500
aI445
aa(lp838
I513
aI421
aI500
aI446
aa(lp839
I508
aI407
aI501
aI447
aa(lp840
I504
aI393
aI501
aI449
aa(lp841
I499
aI379
aI501
aI450
aa(lp842
I494
aI365
aI502
aI451
aa(lp843
I490
aI352
aI502
aI453
aa(lp844
I485
aI338
aI502
aI454
aa(lp845
I480
aI324
aI503
aI456
aa(lp846
I476
aI310
aI503
aI457
aa(lp847
I471
aI296
aI504
aI458
aa(lp848
I466
aI282
aI504
aI460
aa(lp849
I462
aI268
aI505
aI461
aa(lp850
I457
aI254
aI505
aI462
aa(lp851
I452
aI240
aI505
aI464
aa(lp852
I448
aI226
aI506
aI465
aa(lp853
I443
aI212
aI506
aI467
aa(lp854
I438
aI198
aI507
aI468
aa(lp855
I434
aI184
aI507
aI469
aa(lp856
I688
aI987
aI484
aI376
aa(lp857
I683
aI972
aI484
aI377
aa(lp858
I679
aI957
aI484
aI379
aa(lp859
I675
aI943
aI484
aI380
aa(lp860
I670
aI928
aI485
aI381
aa(lp861
I666
aI913
aI485
aI383
aa(lp862
I662
aI898
aI485
aI384
aa(lp863
I657
aI884
aI486
aI386
aa(lp864
I653
aI869
aI486
aI387
aa(lp865
I648
aI854
aI486
aI389
aa(lp866
I644
aI839
aI487
aI390
aa(lp867
I639
aI825
aI487
aI392
aa(lp868
I635
aI810
aI487
aI393
aa(lp869
I630
aI795
aI488
aI395
aa(lp870
I626
aI781
aI488
aI396
aa(lp871
I621
aI766
aI488
aI397
aa(lp872
I617
aI751
aI489
aI399
aa(lp873
I612
aI736
aI489
aI400
aa(lp874
I608
aI722
aI489
aI402
aa(lp875
I603
aI707
aI489
aI403
aa(lp876
I599
aI692
aI490
aI405
aa(lp877
I594
aI677
aI490
aI406
aa(lp878
I590
aI662
aI490
aI408
aa(lp879
I585
aI648
aI491
aI409
aa(lp880
I581
aI633
aI491
aI410
aa(lp881
I576
aI618
aI491
aI412
aa(lp882
I572
aI603
aI492
aI413
aa(lp883
I567
aI589
aI492
aI415
aa(lp884
I563
aI574
aI493
aI416
aa(lp885
I559
aI559
aI493
aI418
aa(lp886
I554
aI545
aI493
aI419
aa(lp887
I550
aI531
aI494
aI421
aa(lp888
I545
aI517
aI494
aI422
aa(lp889
I541
aI503
aI494
aI423
aa(lp890
I536
aI489
aI495
aI425
aa(lp891
I532
aI475
aI495
aI426
aa(lp892
I527
aI462
aI496
aI427
aa(lp893
I523
aI448
aI496
aI429
aa(lp894
I518
aI434
aI496
aI430
aa(lp895
I514
aI420
aI497
aI432
aa(lp896
I509
aI406
aI497
aI433
aa(lp897
I504
aI392
aI498
aI434
aa(lp898
I500
aI378
aI498
aI436
aa(lp899
I495
aI364
aI498
aI437
aa(lp900
I491
aI350
aI499
aI438
aa(lp901
I486
aI336
aI499
aI440
aa(lp902
I482
aI322
aI500
aI441
aa(lp903
I477
aI308
aI500
aI443
aa(lp904
I472
aI294
aI500
aI444
aa(lp905
I468
aI280
aI501
aI445
aa(lp906
I463
aI267
aI501
aI447
aa(lp907
I458
aI253
aI502
aI448
aa(lp908
I454
aI239
aI502
aI449
aa(lp909
I449
aI225
aI502
aI451
aa(lp910
I444
aI211
aI503
aI452
aa(lp911
I440
aI197
aI503
aI454
aa(lp912
I435
aI183
aI503
aI455
aa(lp913
I687
aI985
aI480
aI361
aa(lp914
I683
aI971
aI481
aI363
aa(lp915
I678
aI956
aI481
aI364
aa(lp916
I674
aI941
aI481
aI366
aa(lp917
I670
aI926
aI482
aI367
aa(lp918
I665
aI912
aI482
aI369
aa(lp919
I661
aI897
aI482
aI370
aa(lp920
I656
aI882
aI483
aI371
aa(lp921
I652
aI867
aI483
aI373
aa(lp922
I648
aI853
aI483
aI374
aa(lp923
I643
aI838
aI483
aI376
aa(lp924
I639
aI823
aI484
aI377
aa(lp925
I634
aI808
aI484
aI379
aa(lp926
I630
aI794
aI484
aI380
aa(lp927
I626
aI779
aI485
aI382
aa(lp928
I621
aI764
aI485
aI383
aa(lp929
I617
aI749
aI485
aI384
aa(lp930
I612
aI735
aI486
aI386
aa(lp931
I608
aI720
aI486
aI387
aa(lp932
I603
aI705
aI486
aI389
aa(lp933
I599
aI690
aI487
aI390
aa(lp934
I594
aI676
aI487
aI392
aa(lp935
I590
aI661
aI487
aI393
aa(lp936
I585
aI646
aI488
aI395
aa(lp937
I581
aI631
aI488
aI396
aa(lp938
I577
aI617
aI488
aI397
aa(lp939
I572
aI602
aI489
aI399
aa(lp940
I568
aI587
aI489
aI400
aa(lp941
I563
aI572
aI489
aI402
aa(lp942
I559
aI558
aI490
aI403
aa(lp943
I555
aI544
aI490
aI405
aa(lp944
I550
aI530
aI490
aI406
aa(lp945
I546
aI516
aI491
aI407
aa(lp946
I541
aI502
aI491
aI409
aa(lp947
I537
aI488
aI492
aI410
aa(lp948
I532
aI474
aI492
aI412
aa(lp949
I528
aI460
aI492
aI413
aa(lp950
I523
aI446
aI493
aI414
aa(lp951
I519
aI432
aI493
aI416
aa(lp952
I514
aI418
aI493
aI417
aa(lp953
I510
aI405
aI494
aI419
aa(lp954
I505
aI391
aI494
aI420
aa(lp955
I501
aI377
aI495
aI421
aa(lp956
I496
aI363
aI495
aI423
aa(lp957
I492
aI349
aI495
aI424
aa(lp958
I487
aI335
aI496
aI426
aa(lp959
I483
aI321
aI496
aI427
aa(lp960
I478
aI307
aI497
aI428
aa(lp961
I473
aI293
aI497
aI430
aa(lp962
I469
aI279
aI497
aI431
aa(lp963
I464
aI265
aI498
aI432
aa(lp964
I460
aI251
aI498
aI434
aa(lp965
I455
aI237
aI499
aI435
aa(lp966
I450
aI224
aI499
aI437
aa(lp967
I446
aI210
aI499
aI438
aa(lp968
I441
aI196
aI500
aI439
aa(lp969
I436
aI182
aI500
aI441
aa(lp970
I686
aI984
aI477
aI347
aa(lp971
I682
aI969
aI478
aI348
aa(lp972
I677
aI954
aI478
aI350
aa(lp973
I673
aI940
aI478
aI351
aa(lp974
I669
aI925
aI479
aI353
aa(lp975
I665
aI910
aI479
aI354
aa(lp976
I660
aI895
aI479
aI356
aa(lp977
I656
aI881
aI479
aI357
aa(lp978
I652
aI866
aI480
aI358
aa(lp979
I647
aI851
aI480
aI360
aa(lp980
I643
aI836
aI480
aI361
aa(lp981
I638
aI822
aI481
aI363
aa(lp982
I634
aI807
aI481
aI364
aa(lp983
I630
aI792
aI481
aI366
aa(lp984
I625
aI777
aI482
aI367
aa(lp985
I621
aI763
aI482
aI369
aa(lp986
I617
aI748
aI482
aI370
aa(lp987
I612
aI733
aI483
aI371
aa(lp988
I608
aI719
aI483
aI373
aa(lp989
I603
aI704
aI483
aI374
aa(lp990
I599
aI689
aI483
aI376
aa(lp991
I594
aI674
aI484
aI377
aa(lp992
I590
aI659
aI484
aI379
aa(lp993
I585
aI645
aI484
aI380
aa(lp994
I581
aI630
aI485
aI382
aa(lp995
I577
aI615
aI485
aI383
aa(lp996
I572
aI600
aI485
aI384
aa(lp997
I568
aI586
aI486
aI386
aa(lp998
I564
aI571
aI486
aI387
aa(lp999
I559
aI556
aI486
aI389
aa(lp1000
I555
aI542
aI487
aI390
aa(lp1001
I551
aI528
aI487
aI392
aa(lp1002
I546
aI514
aI488
aI393
aa(lp1003
I542
aI500
aI488
aI394
aa(lp1004
I537
aI487
aI488
aI396
aa(lp1005
I533
aI473
aI489
aI397
aa(lp1006
I528
aI459
aI489
aI399
aa(lp1007
I524
aI445
aI489
aI400
aa(lp1008
I519
aI431
aI490
aI401
aa(lp1009
I515
aI417
aI490
aI403
aa(lp1010
I510
aI403
aI491
aI404
aa(lp1011
I506
aI389
aI491
aI406
aa(lp1012
I502
aI375
aI491
aI407
aa(lp1013
I497
aI361
aI492
aI408
aa(lp1014
I493
aI347
aI492
aI410
aa(lp1015
I488
aI334
aI492
aI411
aa(lp1016
I484
aI320
aI493
aI413
aa(lp1017
I479
aI306
aI493
aI414
aa(lp1018
I475
aI292
aI494
aI415
aa(lp1019
I470
aI278
aI494
aI417
aa(lp1020
I466
aI264
aI494
aI418
aa(lp1021
I461
aI250
aI495
aI419
aa(lp1022
I456
aI236
aI495
aI421
aa(lp1023
I452
aI222
aI495
aI422
aa(lp1024
I447
aI208
aI496
aI424
aa(lp1025
I443
aI194
aI496
aI425
aa(lp1026
I438
aI180
aI497
aI426
aa(lp1027
I685
aI982
aI474
aI333
aa(lp1028
I681
aI967
aI475
aI334
aa(lp1029
I677
aI953
aI475
aI335
aa(lp1030
I672
aI938
aI475
aI337
aa(lp1031
I668
aI923
aI476
aI338
aa(lp1032
I664
aI908
aI476
aI340
aa(lp1033
I660
aI894
aI476
aI341
aa(lp1034
I655
aI879
aI476
aI343
aa(lp1035
I651
aI864
aI477
aI344
aa(lp1036
I647
aI849
aI477
aI345
aa(lp1037
I642
aI835
aI477
aI347
aa(lp1038
I638
aI820
aI478
aI348
aa(lp1039
I634
aI805
aI478
aI350
aa(lp1040
I629
aI791
aI478
aI351
aa(lp1041
I625
aI776
aI479
aI353
aa(lp1042
I621
aI761
aI479
aI354
aa(lp1043
I616
aI746
aI479
aI356
aa(lp1044
I612
aI732
aI479
aI357
aa(lp1045
I608
aI717
aI480
aI359
aa(lp1046
I603
aI702
aI480
aI360
aa(lp1047
I599
aI687
aI480
aI361
aa(lp1048
I594
aI673
aI481
aI363
aa(lp1049
I590
aI658
aI481
aI364
aa(lp1050
I585
aI643
aI481
aI366
aa(lp1051
I581
aI628
aI482
aI367
aa(lp1052
I577
aI614
aI482
aI369
aa(lp1053
I572
aI599
aI482
aI370
aa(lp1054
I568
aI584
aI483
aI372
aa(lp1055
I564
aI570
aI483
aI373
aa(lp1056
I559
aI555
aI483
aI374
aa(lp1057
I555
aI541
aI484
aI376
aa(lp1058
I551
aI527
aI484
aI377
aa(lp1059
I546
aI513
aI484
aI379
aa(lp1060
I542
aI499
aI485
aI380
aa(lp1061
I538
aI485
aI485
aI381
aa(lp1062
I533
aI471
aI485
aI383
aa(lp1063
I529
aI457
aI486
aI384
aa(lp1064
I525
aI443
aI486
aI386
aa(lp1065
I520
aI430
aI487
aI387
aa(lp1066
I516
aI416
aI487
aI388
aa(lp1067
I511
aI402
aI487
aI390
aa(lp1068
I507
aI388
aI488
aI391
aa(lp1069
I502
aI374
aI488
aI393
aa(lp1070
I498
aI360
aI489
aI394
aa(lp1071
I494
aI346
aI489
aI396
aa(lp1072
I489
aI332
aI489
aI397
aa(lp1073
I485
aI318
aI490
aI398
aa(lp1074
I480
aI304
aI490
aI400
aa(lp1075
I476
aI290
aI490
aI401
aa(lp1076
I471
aI277
aI491
aI402
aa(lp1077
I467
aI263
aI491
aI404
aa(lp1078
I462
aI249
aI492
aI405
aa(lp1079
I458
aI235
aI492
aI407
aa(lp1080
I453
aI221
aI492
aI408
aa(lp1081
I449
aI207
aI493
aI409
aa(lp1082
I444
aI193
aI493
aI411
aa(lp1083
I439
aI179
aI493
aI412
aa(lp1084
I684
aI980
aI471
aI318
aa(lp1085
I680
aI966
aI472
aI320
aa(lp1086
I676
aI951
aI472
aI321
aa(lp1087
I672
aI936
aI472
aI322
aa(lp1088
I667
aI922
aI473
aI324
aa(lp1089
I663
aI907
aI473
aI325
aa(lp1090
I659
aI892
aI473
aI327
aa(lp1091
I655
aI877
aI473
aI328
aa(lp1092
I650
aI863
aI474
aI330
aa(lp1093
I646
aI848
aI474
aI331
aa(lp1094
I642
aI833
aI474
aI333
aa(lp1095
I638
aI818
aI475
aI334
aa(lp1096
I633
aI804
aI475
aI335
aa(lp1097
I629
aI789
aI475
aI337
aa(lp1098
I625
aI774
aI476
aI338
aa(lp1099
I620
aI760
aI476
aI340
aa(lp1100
I616
aI745
aI476
aI341
aa(lp1101
I612
aI730
aI476
aI343
aa(lp1102
I607
aI715
aI477
aI344
aa(lp1103
I603
aI701
aI477
aI345
aa(lp1104
I599
aI686
aI477
aI347
aa(lp1105
I594
aI671
aI478
aI348
aa(lp1106
I590
aI656
aI478
aI350
aa(lp1107
I585
aI642
aI478
aI351
aa(lp1108
I581
aI627
aI479
aI353
aa(lp1109
I577
aI612
aI479
aI354
aa(lp1110
I573
aI598
aI479
aI356
aa(lp1111
I568
aI583
aI480
aI357
aa(lp1112
I564
aI568
aI480
aI358
aa(lp1113
I560
aI553
aI480
aI360
aa(lp1114
I555
aI539
aI480
aI361
aa(lp1115
I551
aI525
aI481
aI363
aa(lp1116
I547
aI512
aI481
aI364
aa(lp1117
I542
aI498
aI482
aI366
aa(lp1118
I538
aI484
aI482
aI367
aa(lp1119
I534
aI470
aI482
aI368
aa(lp1120
I529
aI456
aI483
aI370
aa(lp1121
I525
aI442
aI483
aI371
aa(lp1122
I521
aI428
aI483
aI373
aa(lp1123
I516
aI414
aI484
aI374
aa(lp1124
I512
aI400
aI484
aI376
aa(lp1125
I508
aI386
aI485
aI377
aa(lp1126
I503
aI373
aI485
aI378
aa(lp1127
I499
aI359
aI485
aI380
aa(lp1128
I494
aI345
aI486
aI381
aa(lp1129
I490
aI331
aI486
aI383
aa(lp1130
I486
aI317
aI486
aI384
aa(lp1131
I481
aI303
aI487
aI385
aa(lp1132
I477
aI289
aI487
aI387
aa(lp1133
I472
aI275
aI487
aI388
aa(lp1134
I468
aI261
aI488
aI390
aa(lp1135
I463
aI247
aI488
aI391
aa(lp1136
I459
aI234
aI489
aI392
aa(lp1137
I454
aI220
aI489
aI394
aa(lp1138
I450
aI206
aI489
aI395
aa(lp1139
I445
aI192
aI490
aI397
aa(lp1140
I441
aI178
aI490
aI398
aa(lp1141
I684
aI979
aI469
aI304
aa(lp1142
I679
aI964
aI469
aI305
aa(lp1143
I675
aI949
aI469
aI307
aa(lp1144
I671
aI935
aI469
aI308
aa(lp1145
I667
aI920
aI470
aI310
aa(lp1146
I663
aI905
aI470
aI311
aa(lp1147
I658
aI891
aI470
aI312
aa(lp1148
I654
aI876
aI471
aI314
aa(lp1149
I650
aI861
aI471
aI315
aa(lp1150
I646
aI846
aI471
aI317
aa(lp1151
I641
aI832
aI471
aI318
aa(lp1152
I637
aI817
aI472
aI320
aa(lp1153
I633
aI802
aI472
aI321
aa(lp1154
I629
aI787
aI472
aI322
aa(lp1155
I624
aI773
aI473
aI324
aa(lp1156
I620
aI758
aI473
aI325
aa(lp1157
I616
aI743
aI473
aI327
aa(lp1158
I611
aI729
aI473
aI328
aa(lp1159
I607
aI714
aI474
aI330
aa(lp1160
I603
aI699
aI474
aI331
aa(lp1161
I599
aI684
aI474
aI333
aa(lp1162
I594
aI670
aI475
aI334
aa(lp1163
I590
aI655
aI475
aI335
aa(lp1164
I585
aI640
aI475
aI337
aa(lp1165
I581
aI626
aI476
aI338
aa(lp1166
I577
aI611
aI476
aI340
aa(lp1167
I573
aI596
aI476
aI341
aa(lp1168
I568
aI581
aI477
aI343
aa(lp1169
I564
aI567
aI477
aI344
aa(lp1170
I560
aI552
aI477
aI346
aa(lp1171
I556
aI538
aI477
aI347
aa(lp1172
I551
aI524
aI478
aI348
aa(lp1173
I547
aI510
aI478
aI350
aa(lp1174
I543
aI496
aI479
aI351
aa(lp1175
I539
aI482
aI479
aI353
aa(lp1176
I534
aI468
aI479
aI354
aa(lp1177
I530
aI455
aI480
aI356
aa(lp1178
I526
aI441
aI480
aI357
aa(lp1179
I521
aI427
aI480
aI358
aa(lp1180
I517
aI413
aI481
aI360
aa(lp1181
I513
aI399
aI481
aI361
aa(lp1182
I508
aI385
aI481
aI363
aa(lp1183
I504
aI371
aI482
aI364
aa(lp1184
I500
aI357
aI482
aI365
aa(lp1185
I495
aI343
aI483
aI367
aa(lp1186
I491
aI329
aI483
aI368
aa(lp1187
I487
aI316
aI483
aI370
aa(lp1188
I482
aI302
aI484
aI371
aa(lp1189
I478
aI288
aI484
aI372
aa(lp1190
I473
aI274
aI484
aI374
aa(lp1191
I469
aI260
aI485
aI375
aa(lp1192
I465
aI246
aI485
aI377
aa(lp1193
I460
aI232
aI485
aI378
aa(lp1194
I456
aI218
aI486
aI379
aa(lp1195
I451
aI204
aI486
aI381
aa(lp1196
I447
aI191
aI487
aI382
aa(lp1197
I442
aI177
aI487
aI384
aa(lp1198
I683
aI977
aI466
aI289
aa(lp1199
I679
aI962
aI466
aI291
aa(lp1200
I675
aI948
aI466
aI292
aa(lp1201
I670
aI933
aI467
aI294
aa(lp1202
I666
aI918
aI467
aI295
aa(lp1203
I662
aI904
aI467
aI297
aa(lp1204
I658
aI889
aI467
aI298
aa(lp1205
I654
aI874
aI468
aI299
aa(lp1206
I649
aI860
aI468
aI301
aa(lp1207
I645
aI845
aI468
aI302
aa(lp1208
I641
aI830
aI469
aI304
aa(lp1209
I637
aI815
aI469
aI305
aa(lp1210
I633
aI801
aI469
aI307
aa(lp1211
I628
aI786
aI469
aI308
aa(lp1212
I624
aI771
aI470
aI310
aa(lp1213
I620
aI757
aI470
aI311
aa(lp1214
I616
aI742
aI470
aI312
aa(lp1215
I611
aI727
aI471
aI314
aa(lp1216
I607
aI712
aI471
aI315
aa(lp1217
I603
aI698
aI471
aI317
aa(lp1218
I598
aI683
aI471
aI318
aa(lp1219
I594
aI668
aI472
aI320
aa(lp1220
I590
aI653
aI472
aI321
aa(lp1221
I586
aI639
aI472
aI323
aa(lp1222
I581
aI624
aI473
aI324
aa(lp1223
I577
aI609
aI473
aI325
aa(lp1224
I573
aI595
aI473
aI327
aa(lp1225
I569
aI580
aI474
aI328
aa(lp1226
I564
aI565
aI474
aI330
aa(lp1227
I560
aI550
aI474
aI331
aa(lp1228
I556
aI536
aI475
aI333
aa(lp1229
I552
aI523
aI475
aI334
aa(lp1230
I548
aI509
aI475
aI335
aa(lp1231
I543
aI495
aI476
aI337
aa(lp1232
I539
aI481
aI476
aI338
aa(lp1233
I535
aI467
aI476
aI340
aa(lp1234
I531
aI453
aI477
aI341
aa(lp1235
I526
aI439
aI477
aI343
aa(lp1236
I522
aI425
aI477
aI344
aa(lp1237
I518
aI412
aI478
aI345
aa(lp1238
I513
aI398
aI478
aI347
aa(lp1239
I509
aI384
aI478
aI348
aa(lp1240
I505
aI370
aI479
aI350
aa(lp1241
I501
aI356
aI479
aI351
aa(lp1242
I496
aI342
aI479
aI353
aa(lp1243
I492
aI328
aI480
aI354
aa(lp1244
I487
aI314
aI480
aI355
aa(lp1245
I483
aI300
aI481
aI357
aa(lp1246
I479
aI287
aI481
aI358
aa(lp1247
I474
aI273
aI481
aI360
aa(lp1248
I470
aI259
aI482
aI361
aa(lp1249
I466
aI245
aI482
aI362
aa(lp1250
I461
aI231
aI482
aI364
aa(lp1251
I457
aI217
aI483
aI365
aa(lp1252
I452
aI203
aI483
aI367
aa(lp1253
I448
aI189
aI483
aI368
aa(lp1254
I444
aI175
aI484
aI369
aa(lp1255
I682
aI976
aI463
aI275
aa(lp1256
I678
aI961
aI463
aI276
aa(lp1257
I674
aI946
aI464
aI278
aa(lp1258
I670
aI931
aI464
aI279
aa(lp1259
I665
aI917
aI464
aI281
aa(lp1260
I661
aI902
aI464
aI282
aa(lp1261
I657
aI887
aI465
aI284
aa(lp1262
I653
aI873
aI465
aI285
aa(lp1263
I649
aI858
aI465
aI287
aa(lp1264
I645
aI843
aI465
aI288
aa(lp1265
I641
aI829
aI466
aI289
aa(lp1266
I636
aI814
aI466
aI291
aa(lp1267
I632
aI799
aI466
aI292
aa(lp1268
I628
aI784
aI467
aI294
aa(lp1269
I624
aI770
aI467
aI295
aa(lp1270
I620
aI755
aI467
aI297
aa(lp1271
I615
aI740
aI467
aI298
aa(lp1272
I611
aI726
aI468
aI299
aa(lp1273
I607
aI711
aI468
aI301
aa(lp1274
I603
aI696
aI468
aI302
aa(lp1275
I598
aI681
aI469
aI304
aa(lp1276
I594
aI667
aI469
aI305
aa(lp1277
I590
aI652
aI469
aI307
aa(lp1278
I586
aI637
aI469
aI308
aa(lp1279
I582
aI623
aI470
aI310
aa(lp1280
I577
aI608
aI470
aI311
aa(lp1281
I573
aI593
aI470
aI312
aa(lp1282
I569
aI578
aI471
aI314
aa(lp1283
I565
aI564
aI471
aI315
aa(lp1284
I561
aI549
aI471
aI317
aa(lp1285
I556
aI535
aI472
aI318
aa(lp1286
I552
aI521
aI472
aI320
aa(lp1287
I548
aI507
aI472
aI321
aa(lp1288
I544
aI493
aI473
aI323
aa(lp1289
I539
aI479
aI473
aI324
aa(lp1290
I535
aI466
aI473
aI326
aa(lp1291
I531
aI452
aI474
aI327
aa(lp1292
I527
aI438
aI474
aI328
aa(lp1293
I523
aI424
aI474
aI330
aa(lp1294
I518
aI410
aI475
aI331
aa(lp1295
I514
aI396
aI475
aI333
aa(lp1296
I510
aI382
aI476
aI334
aa(lp1297
I505
aI368
aI476
aI335
aa(lp1298
I501
aI355
aI476
aI337
aa(lp1299
I497
aI341
aI476
aI338
aa(lp1300
I493
aI327
aI477
aI340
aa(lp1301
I489
aI313
aI477
aI341
aa(lp1302
I484
aI299
aI478
aI343
aa(lp1303
I480
aI285
aI478
aI344
aa(lp1304
I475
aI271
aI478
aI345
aa(lp1305
I471
aI257
aI479
aI347
aa(lp1306
I467
aI244
aI479
aI348
aa(lp1307
I462
aI230
aI479
aI350
aa(lp1308
I458
aI216
aI480
aI351
aa(lp1309
I454
aI202
aI480
aI352
aa(lp1310
I449
aI188
aI480
aI354
aa(lp1311
I445
aI174
aI481
aI355
aa(lp1312
I681
aI974
aI460
aI261
aa(lp1313
I677
aI959
aI460
aI262
aa(lp1314
I673
aI945
aI461
aI264
aa(lp1315
I669
aI930
aI461
aI265
aa(lp1316
I665
aI915
aI461
aI267
aa(lp1317
I661
aI900
aI462
aI268
aa(lp1318
I657
aI886
aI462
aI269
aa(lp1319
I653
aI871
aI462
aI271
aa(lp1320
I648
aI856
aI462
aI272
aa(lp1321
I644
aI842
aI463
aI274
aa(lp1322
I640
aI827
aI463
aI275
aa(lp1323
I636
aI812
aI463
aI277
aa(lp1324
I632
aI798
aI464
aI278
aa(lp1325
I628
aI783
aI464
aI279
aa(lp1326
I623
aI768
aI464
aI281
aa(lp1327
I619
aI754
aI464
aI282
aa(lp1328
I615
aI739
aI465
aI284
aa(lp1329
I611
aI724
aI465
aI285
aa(lp1330
I607
aI709
aI465
aI287
aa(lp1331
I603
aI695
aI465
aI288
aa(lp1332
I598
aI680
aI466
aI289
aa(lp1333
I594
aI665
aI466
aI291
aa(lp1334
I590
aI650
aI466
aI292
aa(lp1335
I586
aI636
aI467
aI294
aa(lp1336
I582
aI621
aI467
aI295
aa(lp1337
I577
aI606
aI467
aI297
aa(lp1338
I573
aI592
aI467
aI298
aa(lp1339
I569
aI577
aI468
aI300
aa(lp1340
I565
aI562
aI468
aI301
aa(lp1341
I561
aI548
aI468
aI302
aa(lp1342
I557
aI534
aI469
aI304
aa(lp1343
I553
aI520
aI469
aI305
aa(lp1344
I548
aI506
aI469
aI307
aa(lp1345
I544
aI492
aI470
aI308
aa(lp1346
I540
aI478
aI470
aI310
aa(lp1347
I536
aI464
aI470
aI311
aa(lp1348
I532
aI450
aI471
aI313
aa(lp1349
I528
aI436
aI471
aI314
aa(lp1350
I523
aI423
aI472
aI315
aa(lp1351
I519
aI409
aI472
aI317
aa(lp1352
I515
aI395
aI472
aI318
aa(lp1353
I510
aI381
aI472
aI320
aa(lp1354
I506
aI367
aI473
aI321
aa(lp1355
I502
aI353
aI473
aI323
aa(lp1356
I498
aI339
aI474
aI324
aa(lp1357
I494
aI326
aI474
aI325
aa(lp1358
I489
aI312
aI474
aI327
aa(lp1359
I485
aI298
aI475
aI328
aa(lp1360
I481
aI284
aI475
aI330
aa(lp1361
I477
aI270
aI475
aI331
aa(lp1362
I472
aI256
aI476
aI333
aa(lp1363
I468
aI242
aI476
aI334
aa(lp1364
I464
aI228
aI476
aI335
aa(lp1365
I459
aI214
aI477
aI337
aa(lp1366
I455
aI201
aI477
aI338
aa(lp1367
I451
aI187
aI477
aI340
aa(lp1368
I446
aI173
aI478
aI341
aa(lp1369
I680
aI972
aI457
aI246
aa(lp1370
I676
aI958
aI458
aI248
aa(lp1371
I672
aI943
aI458
aI249
aa(lp1372
I668
aI928
aI458
aI251
aa(lp1373
I664
aI914
aI459
aI252
aa(lp1374
I660
aI899
aI459
aI254
aa(lp1375
I656
aI884
aI459
aI255
aa(lp1376
I652
aI870
aI459
aI256
aa(lp1377
I648
aI855
aI460
aI258
aa(lp1378
I644
aI840
aI460
aI259
aa(lp1379
I640
aI825
aI460
aI261
aa(lp1380
I636
aI811
aI460
aI262
aa(lp1381
I631
aI796
aI461
aI264
aa(lp1382
I627
aI781
aI461
aI265
aa(lp1383
I623
aI767
aI461
aI267
aa(lp1384
I619
aI752
aI462
aI268
aa(lp1385
I615
aI737
aI462
aI269
aa(lp1386
I611
aI723
aI462
aI271
aa(lp1387
I607
aI708
aI462
aI272
aa(lp1388
I603
aI693
aI463
aI274
aa(lp1389
I598
aI678
aI463
aI275
aa(lp1390
I594
aI664
aI463
aI277
aa(lp1391
I590
aI649
aI464
aI278
aa(lp1392
I586
aI634
aI464
aI280
aa(lp1393
I582
aI620
aI464
aI281
aa(lp1394
I577
aI605
aI464
aI282
aa(lp1395
I573
aI590
aI465
aI284
aa(lp1396
I569
aI576
aI465
aI285
aa(lp1397
I565
aI561
aI465
aI287
aa(lp1398
I561
aI546
aI466
aI288
aa(lp1399
I557
aI532
aI466
aI290
aa(lp1400
I553
aI518
aI466
aI291
aa(lp1401
I549
aI504
aI467
aI292
aa(lp1402
I545
aI491
aI467
aI294
aa(lp1403
I540
aI477
aI467
aI295
aa(lp1404
I536
aI463
aI467
aI297
aa(lp1405
I532
aI449
aI468
aI298
aa(lp1406
I528
aI435
aI468
aI300
aa(lp1407
I524
aI421
aI469
aI301
aa(lp1408
I520
aI407
aI469
aI303
aa(lp1409
I515
aI394
aI469
aI304
aa(lp1410
I511
aI380
aI470
aI305
aa(lp1411
I507
aI366
aI470
aI307
aa(lp1412
I503
aI352
aI470
aI308
aa(lp1413
I499
aI338
aI471
aI310
aa(lp1414
I494
aI324
aI471
aI311
aa(lp1415
I490
aI310
aI471
aI313
aa(lp1416
I486
aI296
aI472
aI314
aa(lp1417
I482
aI283
aI472
aI316
aa(lp1418
I477
aI269
aI472
aI317
aa(lp1419
I473
aI255
aI473
aI318
aa(lp1420
I469
aI241
aI473
aI320
aa(lp1421
I465
aI227
aI473
aI321
aa(lp1422
I460
aI213
aI474
aI323
aa(lp1423
I456
aI199
aI474
aI324
aa(lp1424
I452
aI185
aI474
aI325
aa(lp1425
I447
aI172
aI475
aI327
aa(lp1426
I680
aI971
aI455
aI232
aa(lp1427
I676
aI956
aI455
aI234
aa(lp1428
I672
aI941
aI455
aI235
aa(lp1429
I668
aI927
aI456
aI236
aa(lp1430
I664
aI912
aI456
aI238
aa(lp1431
I660
aI897
aI456
aI239
aa(lp1432
I656
aI883
aI456
aI241
aa(lp1433
I651
aI868
aI457
aI242
aa(lp1434
I647
aI853
aI457
aI244
aa(lp1435
I643
aI839
aI457
aI245
aa(lp1436
I639
aI824
aI458
aI246
aa(lp1437
I635
aI809
aI458
aI248
aa(lp1438
I631
aI794
aI458
aI249
aa(lp1439
I627
aI780
aI458
aI251
aa(lp1440
I623
aI765
aI459
aI252
aa(lp1441
I619
aI750
aI459
aI254
aa(lp1442
I615
aI736
aI459
aI255
aa(lp1443
I611
aI721
aI459
aI256
aa(lp1444
I606
aI706
aI460
aI258
aa(lp1445
I602
aI692
aI460
aI259
aa(lp1446
I598
aI677
aI460
aI261
aa(lp1447
I594
aI662
aI461
aI262
aa(lp1448
I590
aI648
aI461
aI264
aa(lp1449
I586
aI633
aI461
aI265
aa(lp1450
I582
aI618
aI461
aI267
aa(lp1451
I578
aI603
aI462
aI268
aa(lp1452
I574
aI589
aI462
aI269
aa(lp1453
I569
aI574
aI462
aI271
aa(lp1454
I565
aI559
aI463
aI272
aa(lp1455
I561
aI545
aI463
aI274
aa(lp1456
I557
aI531
aI463
aI275
aa(lp1457
I553
aI517
aI463
aI277
aa(lp1458
I549
aI503
aI464
aI278
aa(lp1459
I545
aI489
aI464
aI280
aa(lp1460
I541
aI475
aI464
aI281
aa(lp1461
I537
aI461
aI465
aI282
aa(lp1462
I533
aI448
aI465
aI284
aa(lp1463
I529
aI434
aI465
aI285
aa(lp1464
I524
aI420
aI466
aI287
aa(lp1465
I520
aI406
aI466
aI288
aa(lp1466
I516
aI392
aI466
aI290
aa(lp1467
I512
aI378
aI467
aI291
aa(lp1468
I508
aI364
aI467
aI293
aa(lp1469
I504
aI351
aI467
aI294
aa(lp1470
I499
aI337
aI468
aI296
aa(lp1471
I495
aI323
aI468
aI297
aa(lp1472
I491
aI309
aI468
aI298
aa(lp1473
I487
aI295
aI469
aI300
aa(lp1474
I483
aI281
aI469
aI301
aa(lp1475
I479
aI267
aI469
aI303
aa(lp1476
I474
aI253
aI470
aI304
aa(lp1477
I470
aI240
aI470
aI306
aa(lp1478
I466
aI226
aI471
aI307
aa(lp1479
I462
aI212
aI471
aI308
aa(lp1480
I457
aI198
aI471
aI310
aa(lp1481
I453
aI184
aI471
aI311
aa(lp1482
I449
aI170
aI472
aI313
aa(lp1483
I679
aI969
aI452
aI218
aa(lp1484
I675
aI954
aI453
aI219
aa(lp1485
I671
aI940
aI453
aI221
aa(lp1486
I667
aI925
aI453
aI222
aa(lp1487
I663
aI910
aI453
aI223
aa(lp1488
I659
aI896
aI454
aI225
aa(lp1489
I655
aI881
aI454
aI226
aa(lp1490
I651
aI866
aI454
aI228
aa(lp1491
I647
aI852
aI454
aI229
aa(lp1492
I643
aI837
aI455
aI231
aa(lp1493
I639
aI822
aI455
aI232
aa(lp1494
I635
aI808
aI455
aI234
aa(lp1495
I631
aI793
aI455
aI235
aa(lp1496
I627
aI778
aI456
aI236
aa(lp1497
I623
aI764
aI456
aI238
aa(lp1498
I619
aI749
aI456
aI239
aa(lp1499
I614
aI734
aI456
aI241
aa(lp1500
I610
aI720
aI457
aI242
aa(lp1501
I606
aI705
aI457
aI244
aa(lp1502
I602
aI690
aI457
aI245
aa(lp1503
I598
aI675
aI457
aI246
aa(lp1504
I594
aI661
aI458
aI248
aa(lp1505
I590
aI646
aI458
aI249
aa(lp1506
I586
aI631
aI458
aI251
aa(lp1507
I582
aI617
aI459
aI252
aa(lp1508
I578
aI602
aI459
aI254
aa(lp1509
I574
aI587
aI459
aI255
aa(lp1510
I570
aI573
aI459
aI257
aa(lp1511
I566
aI558
aI460
aI258
aa(lp1512
I562
aI543
aI460
aI259
aa(lp1513
I557
aI529
aI460
aI261
aa(lp1514
I554
aI515
aI461
aI262
aa(lp1515
I549
aI502
aI461
aI264
aa(lp1516
I545
aI488
aI461
aI265
aa(lp1517
I541
aI474
aI462
aI267
aa(lp1518
I537
aI460
aI462
aI268
aa(lp1519
I533
aI446
aI462
aI270
aa(lp1520
I529
aI432
aI463
aI271
aa(lp1521
I525
aI418
aI463
aI273
aa(lp1522
I521
aI405
aI463
aI274
aa(lp1523
I517
aI391
aI464
aI275
aa(lp1524
I513
aI377
aI464
aI277
aa(lp1525
I508
aI363
aI464
aI278
aa(lp1526
I504
aI349
aI465
aI280
aa(lp1527
I500
aI335
aI465
aI281
aa(lp1528
I496
aI322
aI465
aI283
aa(lp1529
I492
aI308
aI466
aI284
aa(lp1530
I488
aI294
aI466
aI286
aa(lp1531
I484
aI280
aI466
aI287
aa(lp1532
I479
aI266
aI467
aI289
aa(lp1533
I475
aI252
aI467
aI290
aa(lp1534
I471
aI238
aI467
aI291
aa(lp1535
I467
aI224
aI468
aI293
aa(lp1536
I463
aI211
aI468
aI294
aa(lp1537
I458
aI197
aI468
aI296
aa(lp1538
I454
aI183
aI469
aI297
aa(lp1539
I450
aI169
aI469
aI299
aa(lp1540
I678
aI967
aI450
aI203
aa(lp1541
I674
aI953
aI450
aI205
aa(lp1542
I670
aI938
aI450
aI206
aa(lp1543
I666
aI923
aI451
aI208
aa(lp1544
I662
aI909
aI451
aI209
aa(lp1545
I658
aI894
aI451
aI211
aa(lp1546
I654
aI880
aI451
aI212
aa(lp1547
I650
aI865
aI452
aI214
aa(lp1548
I646
aI850
aI452
aI215
aa(lp1549
I643
aI835
aI452
aI216
aa(lp1550
I638
aI821
aI452
aI218
aa(lp1551
I635
aI806
aI453
aI219
aa(lp1552
I630
aI791
aI453
aI221
aa(lp1553
I626
aI777
aI453
aI222
aa(lp1554
I622
aI762
aI453
aI224
aa(lp1555
I618
aI747
aI454
aI225
aa(lp1556
I614
aI733
aI454
aI226
aa(lp1557
I610
aI718
aI454
aI228
aa(lp1558
I606
aI703
aI454
aI229
aa(lp1559
I602
aI689
aI455
aI231
aa(lp1560
I598
aI674
aI455
aI232
aa(lp1561
I594
aI659
aI455
aI234
aa(lp1562
I590
aI645
aI455
aI235
aa(lp1563
I586
aI630
aI456
aI236
aa(lp1564
I582
aI615
aI456
aI238
aa(lp1565
I578
aI601
aI456
aI239
aa(lp1566
I574
aI586
aI457
aI241
aa(lp1567
I570
aI571
aI457
aI242
aa(lp1568
I566
aI556
aI457
aI244
aa(lp1569
I562
aI542
aI457
aI245
aa(lp1570
I558
aI528
aI458
aI247
aa(lp1571
I554
aI514
aI458
aI248
aa(lp1572
I550
aI500
aI458
aI250
aa(lp1573
I546
aI486
aI459
aI251
aa(lp1574
I542
aI472
aI459
aI252
aa(lp1575
I538
aI459
aI459
aI254
aa(lp1576
I534
aI445
aI460
aI255
aa(lp1577
I530
aI431
aI460
aI257
aa(lp1578
I525
aI417
aI460
aI258
aa(lp1579
I522
aI403
aI461
aI260
aa(lp1580
I517
aI389
aI461
aI261
aa(lp1581
I513
aI376
aI461
aI263
aa(lp1582
I509
aI362
aI462
aI264
aa(lp1583
I505
aI348
aI462
aI266
aa(lp1584
I501
aI334
aI462
aI267
aa(lp1585
I497
aI320
aI463
aI269
aa(lp1586
I493
aI306
aI463
aI270
aa(lp1587
I489
aI292
aI463
aI271
aa(lp1588
I485
aI279
aI464
aI273
aa(lp1589
I481
aI265
aI464
aI274
aa(lp1590
I476
aI251
aI464
aI276
aa(lp1591
I472
aI237
aI465
aI277
aa(lp1592
I468
aI223
aI465
aI279
aa(lp1593
I464
aI209
aI465
aI280
aa(lp1594
I460
aI195
aI465
aI282
aa(lp1595
I455
aI182
aI466
aI283
aa(lp1596
I451
aI168
aI466
aI284
aa(lp1597
I677
aI966
aI447
aI189
aa(lp1598
I674
aI951
aI447
aI191
aa(lp1599
I670
aI937
aI448
aI192
aa(lp1600
I666
aI922
aI448
aI194
aa(lp1601
I662
aI907
aI448
aI195
aa(lp1602
I658
aI893
aI448
aI196
aa(lp1603
I654
aI878
aI449
aI198
aa(lp1604
I650
aI863
aI449
aI199
aa(lp1605
I646
aI849
aI449
aI201
aa(lp1606
I642
aI834
aI450
aI202
aa(lp1607
I638
aI819
aI450
aI204
aa(lp1608
I634
aI805
aI450
aI205
aa(lp1609
I630
aI790
aI450
aI206
aa(lp1610
I626
aI775
aI451
aI208
aa(lp1611
I622
aI761
aI451
aI209
aa(lp1612
I618
aI746
aI451
aI211
aa(lp1613
I614
aI731
aI451
aI212
aa(lp1614
I610
aI717
aI452
aI214
aa(lp1615
I606
aI702
aI452
aI215
aa(lp1616
I602
aI687
aI452
aI216
aa(lp1617
I598
aI672
aI452
aI218
aa(lp1618
I594
aI658
aI453
aI219
aa(lp1619
I590
aI643
aI453
aI221
aa(lp1620
I586
aI628
aI453
aI222
aa(lp1621
I582
aI614
aI453
aI224
aa(lp1622
I578
aI599
aI454
aI225
aa(lp1623
I574
aI584
aI454
aI227
aa(lp1624
I570
aI570
aI454
aI228
aa(lp1625
I566
aI555
aI454
aI229
aa(lp1626
I562
aI540
aI455
aI231
aa(lp1627
I558
aI609
aI455
aI303
aa(lp1628
I554
aI513
aI455
aI234
aa(lp1629
I550
aI499
aI456
aI235
aa(lp1630
I546
aI485
aI456
aI237
aa(lp1631
I542
aI471
aI456
aI238
aa(lp1632
I538
aI457
aI457
aI240
aa(lp1633
I534
aI443
aI457
aI241
aa(lp1634
I530
aI430
aI457
aI243
aa(lp1635
I526
aI416
aI458
aI244
aa(lp1636
I522
aI402
aI458
aI246
aa(lp1637
I518
aI388
aI458
aI247
aa(lp1638
I514
aI374
aI459
aI248
aa(lp1639
I510
aI360
aI459
aI250
aa(lp1640
I506
aI347
aI459
aI251
aa(lp1641
I502
aI333
aI459
aI253
aa(lp1642
I498
aI319
aI460
aI254
aa(lp1643
I494
aI305
aI460
aI256
aa(lp1644
I489
aI291
aI460
aI257
aa(lp1645
I485
aI277
aI461
aI259
aa(lp1646
I481
aI263
aI461
aI260
aa(lp1647
I477
aI250
aI461
aI262
aa(lp1648
I473
aI236
aI462
aI263
aa(lp1649
I469
aI222
aI462
aI265
aa(lp1650
I465
aI208
aI462
aI266
aa(lp1651
I461
aI194
aI463
aI267
aa(lp1652
I457
aI180
aI463
aI269
aa(lp1653
I452
aI167
aI463
aI270
aa(lp1654
I677
aI964
aI445
aI175
aa(lp1655
I673
aI950
aI445
aI176
aa(lp1656
I669
aI935
aI445
aI178
aa(lp1657
I665
aI920
aI446
aI179
aa(lp1658
I661
aI906
aI446
aI181
aa(lp1659
I657
aI891
aI446
aI182
aa(lp1660
I653
aI876
aI446
aI184
aa(lp1661
I650
aI862
aI447
aI185
aa(lp1662
I646
aI847
aI447
aI186
aa(lp1663
I642
aI832
aI447
aI188
aa(lp1664
I638
aI818
aI447
aI189
aa(lp1665
I634
aI803
aI447
aI191
aa(lp1666
I630
aI788
aI448
aI192
aa(lp1667
I626
aI774
aI448
aI194
aa(lp1668
I622
aI759
aI448
aI195
aa(lp1669
I618
aI744
aI448
aI196
aa(lp1670
I614
aI730
aI449
aI198
aa(lp1671
I610
aI715
aI449
aI199
aa(lp1672
I606
aI700
aI449
aI201
aa(lp1673
I602
aI686
aI449
aI202
aa(lp1674
I598
aI671
aI450
aI204
aa(lp1675
I594
aI656
aI450
aI205
aa(lp1676
I590
aI642
aI450
aI206
aa(lp1677
I586
aI627
aI451
aI208
aa(lp1678
I582
aI612
aI451
aI209
aa(lp1679
I578
aI598
aI451
aI211
aa(lp1680
I574
aI583
aI451
aI212
aa(lp1681
I570
aI568
aI452
aI214
aa(lp1682
I566
aI554
aI452
aI215
aa(lp1683
I562
aI539
aI452
aI216
aa(lp1684
I558
aI525
aI452
aI218
aa(lp1685
I554
aI511
aI453
aI219
aa(lp1686
I550
aI497
aI453
aI221
aa(lp1687
I546
aI483
aI453
aI222
aa(lp1688
I543
aI470
aI454
aI224
aa(lp1689
I539
aI456
aI454
aI225
aa(lp1690
I535
aI442
aI454
aI227
aa(lp1691
I531
aI428
aI455
aI228
aa(lp1692
I527
aI414
aI455
aI230
aa(lp1693
I523
aI401
aI455
aI231
aa(lp1694
I519
aI387
aI456
aI233
aa(lp1695
I515
aI373
aI456
aI234
aa(lp1696
I511
aI359
aI456
aI236
aa(lp1697
I507
aI345
aI457
aI237
aa(lp1698
I502
aI331
aI457
aI239
aa(lp1699
I498
aI318
aI457
aI240
aa(lp1700
I494
aI304
aI457
aI242
aa(lp1701
I490
aI290
aI458
aI243
aa(lp1702
I486
aI276
aI458
aI245
aa(lp1703
I482
aI262
aI458
aI246
aa(lp1704
I478
aI248
aI459
aI247
aa(lp1705
I474
aI234
aI459
aI249
aa(lp1706
I470
aI221
aI459
aI250
aa(lp1707
I466
aI207
aI460
aI252
aa(lp1708
I462
aI193
aI460
aI253
aa(lp1709
I458
aI179
aI460
aI255
aa(lp1710
I454
aI165
aI461
aI256
aa(lp1711
I676
aI963
aI442
aI161
aa(lp1712
I672
aI948
aI443
aI162
aa(lp1713
I668
aI933
aI443
aI164
aa(lp1714
I665
aI919
aI443
aI165
aa(lp1715
I661
aI904
aI443
aI166
aa(lp1716
I657
aI889
aI444
aI168
aa(lp1717
I653
aI875
aI444
aI169
aa(lp1718
I649
aI860
aI444
aI171
aa(lp1719
I645
aI845
aI444
aI172
aa(lp1720
I641
aI831
aI445
aI174
aa(lp1721
I637
aI816
aI445
aI175
aa(lp1722
I633
aI801
aI445
aI176
aa(lp1723
I629
aI787
aI445
aI178
aa(lp1724
I626
aI772
aI445
aI179
aa(lp1725
I622
aI757
aI446
aI181
aa(lp1726
I618
aI743
aI446
aI182
aa(lp1727
I614
aI728
aI446
aI184
aa(lp1728
I610
aI714
aI447
aI185
aa(lp1729
I606
aI699
aI447
aI186
aa(lp1730
I602
aI684
aI447
aI188
aa(lp1731
I598
aI669
aI447
aI189
aa(lp1732
I594
aI655
aI447
aI191
aa(lp1733
I590
aI640
aI448
aI192
aa(lp1734
I586
aI626
aI448
aI194
aa(lp1735
I582
aI611
aI448
aI195
aa(lp1736
I578
aI596
aI448
aI196
aa(lp1737
I574
aI582
aI449
aI198
aa(lp1738
I570
aI567
aI449
aI199
aa(lp1739
I566
aI552
aI449
aI201
aa(lp1740
I562
aI538
aI450
aI202
aa(lp1741
I559
aI524
aI450
aI204
aa(lp1742
I555
aI510
aI450
aI205
aa(lp1743
I551
aI496
aI451
aI207
aa(lp1744
I547
aI482
aI451
aI208
aa(lp1745
I543
aI468
aI451
aI210
aa(lp1746
I539
aI454
aI452
aI211
aa(lp1747
I535
aI441
aI452
aI213
aa(lp1748
I531
aI427
aI452
aI214
aa(lp1749
I527
aI413
aI452
aI216
aa(lp1750
I523
aI399
aI453
aI217
aa(lp1751
I519
aI385
aI453
aI219
aa(lp1752
I515
aI371
aI453
aI220
aa(lp1753
I511
aI358
aI454
aI222
aa(lp1754
I507
aI344
aI454
aI223
aa(lp1755
I503
aI330
aI454
aI225
aa(lp1756
I499
aI316
aI455
aI226
aa(lp1757
I495
aI302
aI455
aI227
aa(lp1758
I491
aI289
aI455
aI229
aa(lp1759
I487
aI275
aI456
aI230
aa(lp1760
I483
aI261
aI456
aI232
aa(lp1761
I479
aI247
aI456
aI233
aa(lp1762
I475
aI233
aI457
aI235
aa(lp1763
I471
aI219
aI457
aI236
aa(lp1764
I467
aI205
aI457
aI238
aa(lp1765
I463
aI192
aI457
aI239
aa(lp1766
I459
aI178
aI458
aI241
aa(lp1767
I455
aI164
aI458
aI242
aa(lp1768
I675
aI961
aI440
aI147
aa(lp1769
I672
aI946
aI440
aI148
aa(lp1770
I668
aI932
aI441
aI149
aa(lp1771
I664
aI917
aI441
aI151
aa(lp1772
I660
aI903
aI441
aI152
aa(lp1773
I656
aI888
aI441
aI154
aa(lp1774
I652
aI873
aI441
aI155
aa(lp1775
I649
aI859
aI442
aI156
aa(lp1776
I645
aI844
aI442
aI158
aa(lp1777
I641
aI829
aI442
aI159
aa(lp1778
I637
aI815
aI442
aI161
aa(lp1779
I633
aI800
aI443
aI162
aa(lp1780
I629
aI785
aI443
aI164
aa(lp1781
I625
aI771
aI443
aI165
aa(lp1782
I621
aI756
aI443
aI166
aa(lp1783
I617
aI741
aI444
aI168
aa(lp1784
I613
aI727
aI444
aI169
aa(lp1785
I610
aI712
aI444
aI171
aa(lp1786
I606
aI697
aI444
aI172
aa(lp1787
I602
aI683
aI445
aI174
aa(lp1788
I598
aI668
aI445
aI175
aa(lp1789
I594
aI653
aI445
aI176
aa(lp1790
I590
aI639
aI445
aI178
aa(lp1791
I586
aI624
aI445
aI179
aa(lp1792
I582
aI609
aI446
aI181
aa(lp1793
I578
aI595
aI446
aI182
aa(lp1794
I574
aI580
aI446
aI184
aa(lp1795
I570
aI565
aI446
aI185
aa(lp1796
I567
aI551
aI447
aI186
aa(lp1797
I563
aI536
aI447
aI188
aa(lp1798
I559
aI522
aI447
aI189
aa(lp1799
I555
aI508
aI448
aI191
aa(lp1800
I551
aI494
aI448
aI192
aa(lp1801
I547
aI481
aI448
aI194
aa(lp1802
I543
aI467
aI449
aI196
aa(lp1803
I540
aI453
aI449
aI197
aa(lp1804
I535
aI439
aI449
aI198
aa(lp1805
I532
aI425
aI449
aI200
aa(lp1806
I528
aI412
aI450
aI201
aa(lp1807
I524
aI398
aI450
aI203
aa(lp1808
I520
aI384
aI450
aI204
aa(lp1809
I516
aI370
aI451
aI206
aa(lp1810
I512
aI356
aI451
aI207
aa(lp1811
I508
aI343
aI451
aI209
aa(lp1812
I504
aI329
aI452
aI210
aa(lp1813
I500
aI315
aI452
aI212
aa(lp1814
I496
aI301
aI452
aI213
aa(lp1815
I492
aI287
aI453
aI215
aa(lp1816
I488
aI273
aI453
aI216
aa(lp1817
I484
aI260
aI453
aI218
aa(lp1818
I480
aI246
aI454
aI219
aa(lp1819
I476
aI232
aI454
aI221
aa(lp1820
I472
aI218
aI454
aI222
aa(lp1821
I468
aI204
aI454
aI224
aa(lp1822
I464
aI190
aI455
aI225
aa(lp1823
I460
aI177
aI455
aI226
aa(lp1824
I456
aI163
aI455
aI228
aa(lp1825
I675
aI959
aI438
aI132
aa(lp1826
I671
aI945
aI438
aI134
aa(lp1827
I667
aI930
aI438
aI135
aa(lp1828
I663
aI916
aI438
aI137
aa(lp1829
I660
aI901
aI439
aI138
aa(lp1830
I656
aI886
aI439
aI139
aa(lp1831
I652
aI872
aI439
aI141
aa(lp1832
I648
aI857
aI439
aI142
aa(lp1833
I644
aI842
aI440
aI144
aa(lp1834
I640
aI828
aI440
aI145
aa(lp1835
I637
aI813
aI440
aI147
aa(lp1836
I633
aI798
aI440
aI148
aa(lp1837
I629
aI784
aI440
aI149
aa(lp1838
I625
aI769
aI441
aI151
aa(lp1839
I621
aI754
aI441
aI152
aa(lp1840
I617
aI740
aI441
aI154
aa(lp1841
I613
aI725
aI441
aI155
aa(lp1842
I609
aI710
aI442
aI157
aa(lp1843
I606
aI696
aI442
aI158
aa(lp1844
I602
aI681
aI442
aI159
aa(lp1845
I598
aI667
aI442
aI161
aa(lp1846
I594
aI652
aI443
aI162
aa(lp1847
I590
aI637
aI443
aI164
aa(lp1848
I586
aI623
aI443
aI165
aa(lp1849
I582
aI608
aI443
aI167
aa(lp1850
I578
aI593
aI444
aI168
aa(lp1851
I574
aI579
aI444
aI169
aa(lp1852
I571
aI564
aI444
aI171
aa(lp1853
I567
aI549
aI444
aI172
aa(lp1854
I563
aI535
aI445
aI174
aa(lp1855
I559
aI604
aI445
aI253
aa(lp1856
I555
aI507
aI445
aI177
aa(lp1857
I551
aI493
aI446
aI178
aa(lp1858
I548
aI479
aI446
aI180
aa(lp1859
I544
aI465
aI446
aI181
aa(lp1860
I540
aI452
aI446
aI183
aa(lp1861
I536
aI438
aI447
aI184
aa(lp1862
I532
aI424
aI447
aI186
aa(lp1863
I528
aI410
aI447
aI187
aa(lp1864
I524
aI396
aI448
aI189
aa(lp1865
I520
aI383
aI448
aI190
aa(lp1866
I516
aI369
aI448
aI192
aa(lp1867
I513
aI355
aI449
aI193
aa(lp1868
I509
aI341
aI449
aI195
aa(lp1869
I505
aI327
aI449
aI196
aa(lp1870
I501
aI314
aI449
aI198
aa(lp1871
I497
aI300
aI450
aI199
aa(lp1872
I493
aI286
aI450
aI201
aa(lp1873
I489
aI272
aI450
aI202
aa(lp1874
I485
aI258
aI451
aI204
aa(lp1875
I481
aI244
aI451
aI205
aa(lp1876
I477
aI231
aI451
aI207
aa(lp1877
I473
aI217
aI451
aI208
aa(lp1878
I469
aI203
aI452
aI209
aa(lp1879
I465
aI189
aI452
aI211
aa(lp1880
I461
aI175
aI452
aI212
aa(lp1881
I457
aI161
aI453
aI214
aa(lp1882
I674
aI958
aI435
aI118
aa(lp1883
I670
aI943
aI435
aI119
aa(lp1884
I667
aI929
aI436
aI121
aa(lp1885
I663
aI914
aI436
aI122
aa(lp1886
I659
aI899
aI436
aI124
aa(lp1887
I655
aI885
aI436
aI125
aa(lp1888
I651
aI870
aI437
aI127
aa(lp1889
I648
aI855
aI437
aI128
aa(lp1890
I644
aI841
aI437
aI129
aa(lp1891
I640
aI826
aI437
aI131
aa(lp1892
I636
aI812
aI438
aI132
aa(lp1893
I632
aI797
aI438
aI134
aa(lp1894
I628
aI782
aI438
aI135
aa(lp1895
I625
aI768
aI438
aI137
aa(lp1896
I621
aI753
aI439
aI138
aa(lp1897
I617
aI738
aI439
aI139
aa(lp1898
I613
aI724
aI439
aI141
aa(lp1899
I609
aI709
aI439
aI142
aa(lp1900
I605
aI694
aI440
aI144
aa(lp1901
I601
aI680
aI440
aI145
aa(lp1902
I598
aI665
aI440
aI147
aa(lp1903
I594
aI650
aI440
aI148
aa(lp1904
I590
aI636
aI441
aI149
aa(lp1905
I586
aI621
aI441
aI151
aa(lp1906
I582
aI606
aI441
aI152
aa(lp1907
I578
aI592
aI441
aI154
aa(lp1908
I575
aI577
aI442
aI155
aa(lp1909
I571
aI563
aI442
aI157
aa(lp1910
I567
aI548
aI442
aI158
aa(lp1911
I563
aI533
aI442
aI159
aa(lp1912
I559
aI602
aI443
aI237
aa(lp1913
I555
aI505
aI443
aI163
aa(lp1914
I552
aI492
aI443
aI164
aa(lp1915
I548
aI478
aI443
aI166
aa(lp1916
I544
aI464
aI444
aI167
aa(lp1917
I540
aI450
aI444
aI169
aa(lp1918
I536
aI436
aI444
aI170
aa(lp1919
I533
aI423
aI445
aI172
aa(lp1920
I529
aI409
aI445
aI173
aa(lp1921
I525
aI395
aI445
aI175
aa(lp1922
I521
aI381
aI445
aI176
aa(lp1923
I517
aI367
aI446
aI178
aa(lp1924
I513
aI354
aI446
aI179
aa(lp1925
I509
aI340
aI446
aI181
aa(lp1926
I505
aI326
aI447
aI182
aa(lp1927
I502
aI312
aI447
aI183
aa(lp1928
I498
aI298
aI447
aI185
aa(lp1929
I494
aI285
aI447
aI187
aa(lp1930
I490
aI271
aI448
aI188
aa(lp1931
I486
aI257
aI448
aI189
aa(lp1932
I482
aI243
aI448
aI191
aa(lp1933
I478
aI229
aI449
aI192
aa(lp1934
I474
aI216
aI449
aI194
aa(lp1935
I470
aI202
aI449
aI195
aa(lp1936
I466
aI188
aI450
aI197
aa(lp1937
I462
aI174
aI450
aI198
aa(lp1938
I458
aI160
aI450
aI200
aa(lp1939
I673
aI956
aI433
aI104
aa(lp1940
I670
aI942
aI433
aI105
aa(lp1941
I666
aI927
aI433
aI107
aa(lp1942
I662
aI912
aI434
aI108
aa(lp1943
I658
aI898
aI434
aI110
aa(lp1944
I655
aI883
aI434
aI111
aa(lp1945
I651
aI868
aI434
aI112
aa(lp1946
I647
aI854
aI435
aI114
aa(lp1947
I643
aI839
aI435
aI115
aa(lp1948
I640
aI825
aI435
aI117
aa(lp1949
I636
aI810
aI435
aI118
aa(lp1950
I632
aI795
aI435
aI120
aa(lp1951
I628
aI781
aI436
aI121
aa(lp1952
I624
aI766
aI436
aI122
aa(lp1953
I621
aI751
aI436
aI124
aa(lp1954
I617
aI737
aI436
aI125
aa(lp1955
I613
aI722
aI437
aI127
aa(lp1956
I609
aI708
aI437
aI128
aa(lp1957
I605
aI693
aI437
aI130
aa(lp1958
I601
aI678
aI437
aI131
aa(lp1959
I598
aI664
aI438
aI132
aa(lp1960
I594
aI649
aI438
aI134
aa(lp1961
I590
aI634
aI438
aI135
aa(lp1962
I586
aI620
aI438
aI137
aa(lp1963
I582
aI605
aI439
aI138
aa(lp1964
I579
aI590
aI439
aI139
aa(lp1965
I575
aI576
aI439
aI141
aa(lp1966
I571
aI561
aI439
aI142
aa(lp1967
I567
aI546
aI440
aI144
aa(lp1968
I563
aI532
aI440
aI145
aa(lp1969
I560
aI518
aI440
aI147
aa(lp1970
I556
aI589
aI440
aI231
aa(lp1971
I552
aI490
aI441
aI150
aa(lp1972
I548
aI476
aI441
aI151
aa(lp1973
I545
aI463
aI441
aI153
aa(lp1974
I541
aI449
aI442
aI154
aa(lp1975
I537
aI435
aI442
aI156
aa(lp1976
I533
aI421
aI442
aI157
aa(lp1977
I529
aI407
aI442
aI159
aa(lp1978
I525
aI394
aI443
aI160
aa(lp1979
I522
aI380
aI443
aI162
aa(lp1980
I518
aI366
aI443
aI163
aa(lp1981
I514
aI352
aI444
aI165
aa(lp1982
I510
aI339
aI444
aI166
aa(lp1983
I506
aI325
aI444
aI168
aa(lp1984
I502
aI311
aI445
aI169
aa(lp1985
I498
aI297
aI445
aI171
aa(lp1986
I494
aI283
aI445
aI172
aa(lp1987
I491
aI269
aI445
aI174
aa(lp1988
I487
aI256
aI446
aI175
aa(lp1989
I483
aI242
aI446
aI177
aa(lp1990
I479
aI228
aI446
aI178
aa(lp1991
I475
aI214
aI447
aI180
aa(lp1992
I471
aI200
aI447
aI181
aa(lp1993
I467
aI187
aI447
aI183
aa(lp1994
I463
aI173
aI447
aI184
aa(lp1995
I459
aI159
aI448
aI186
aa(lp1996
I673
aI955
aI431
aI90
aa(lp1997
I669
aI940
aI431
aI91
aa(lp1998
I665
aI925
aI431
aI92
aa(lp1999
I662
aI911
aI431
aI94
aa(lp2000
I658
aI896
aI432
aI95
aa(lp2001
I654
aI882
aI432
aI97
aa(lp2002
I651
aI867
aI432
aI98
aa(lp2003
I647
aI852
aI432
aI100
aa(lp2004
I643
aI838
aI433
aI101
aa(lp2005
I639
aI823
aI433
aI102
aa(lp2006
I635
aI808
aI433
aI104
aa(lp2007
I632
aI794
aI433
aI105
aa(lp2008
I628
aI779
aI433
aI107
aa(lp2009
I624
aI765
aI434
aI108
aa(lp2010
I620
aI750
aI434
aI110
aa(lp2011
I617
aI735
aI434
aI111
aa(lp2012
I613
aI721
aI434
aI112
aa(lp2013
I609
aI706
aI435
aI114
aa(lp2014
I605
aI691
aI435
aI115
aa(lp2015
I601
aI677
aI435
aI117
aa(lp2016
I598
aI662
aI435
aI118
aa(lp2017
I594
aI647
aI435
aI120
aa(lp2018
I590
aI633
aI436
aI121
aa(lp2019
I586
aI618
aI436
aI122
aa(lp2020
I582
aI604
aI436
aI124
aa(lp2021
I579
aI589
aI436
aI125
aa(lp2022
I575
aI574
aI437
aI127
aa(lp2023
I571
aI560
aI437
aI128
aa(lp2024
I567
aI545
aI437
aI130
aa(lp2025
I564
aI530
aI437
aI131
aa(lp2026
I560
aI516
aI438
aI133
aa(lp2027
I556
aI503
aI438
aI134
aa(lp2028
I552
aI489
aI438
aI136
aa(lp2029
I549
aI475
aI439
aI137
aa(lp2030
I545
aI461
aI439
aI139
aa(lp2031
I541
aI448
aI439
aI140
aa(lp2032
I537
aI434
aI439
aI142
aa(lp2033
I533
aI420
aI440
aI143
aa(lp2034
I530
aI406
aI440
aI145
aa(lp2035
I526
aI392
aI440
aI146
aa(lp2036
I522
aI379
aI440
aI148
aa(lp2037
I518
aI365
aI441
aI149
aa(lp2038
I514
aI351
aI441
aI151
aa(lp2039
I511
aI337
aI441
aI152
aa(lp2040
I507
aI323
aI442
aI154
aa(lp2041
I503
aI310
aI442
aI155
aa(lp2042
I499
aI296
aI442
aI157
aa(lp2043
I495
aI282
aI443
aI158
aa(lp2044
I491
aI268
aI443
aI160
aa(lp2045
I487
aI254
aI443
aI161
aa(lp2046
I484
aI241
aI443
aI163
aa(lp2047
I480
aI227
aI444
aI164
aa(lp2048
I476
aI213
aI444
aI166
aa(lp2049
I472
aI199
aI445
aI167
aa(lp2050
I468
aI185
aI445
aI169
aa(lp2051
I464
aI171
aI445
aI170
aa(lp2052
I460
aI158
aI445
aI172
aa.