(lp0
(lp1
F0.54
aF-0.18
aa(lp2
F0.54
aF-0.16999999999999998
aa(lp3
F0.54
aF-0.16
aa(lp4
F0.54
aF-0.15
aa(lp5
F0.54
aF-0.13999999999999999
aa(lp6
F0.54
aF-0.13
aa(lp7
F0.54
aF-0.12
aa(lp8
F0.54
aF-0.10999999999999999
aa(lp9
F0.54
aF-0.09999999999999999
aa(lp10
F0.54
aF-0.09
aa(lp11
F0.54
aF-0.07999999999999999
aa(lp12
F0.54
aF-0.06999999999999999
aa(lp13
F0.54
aF-0.06
aa(lp14
F0.54
aF-0.04999999999999999
aa(lp15
F0.54
aF-0.03999999999999998
aa(lp16
F0.54
aF-0.03
aa(lp17
F0.54
aF-0.01999999999999999
aa(lp18
F0.54
aF-0.009999999999999981
aa(lp19
F0.54
aF0.0
aa(lp20
F0.54
aF0.010000000000000009
aa(lp21
F0.54
aF0.020000000000000018
aa(lp22
F0.54
aF0.03
aa(lp23
F0.54
aF0.04000000000000001
aa(lp24
F0.54
aF0.05000000000000002
aa(lp25
F0.54
aF0.06
aa(lp26
F0.54
aF0.07
aa(lp27
F0.54
aF0.08000000000000002
aa(lp28
F0.54
aF0.09000000000000002
aa(lp29
F0.54
aF0.10000000000000003
aa(lp30
F0.54
aF0.10999999999999999
aa(lp31
F0.54
aF0.12
aa(lp32
F0.54
aF0.13
aa(lp33
F0.54
aF0.14
aa(lp34
F0.54
aF0.15000000000000002
aa(lp35
F0.54
aF0.16000000000000003
aa(lp36
F0.54
aF0.17000000000000004
aa(lp37
F0.54
aF0.18
aa(lp38
F0.54
aF0.19
aa(lp39
F0.54
aF0.2
aa(lp40
F0.54
aF0.21000000000000002
aa(lp41
F0.54
aF0.22000000000000003
aa(lp42
F0.54
aF0.23000000000000004
aa(lp43
F0.54
aF0.24
aa(lp44
F0.54
aF0.25
aa(lp45
F0.54
aF0.26
aa(lp46
F0.54
aF0.27
aa(lp47
F0.54
aF0.28
aa(lp48
F0.54
aF0.29000000000000004
aa(lp49
F0.54
aF0.3
aa(lp50
F0.54
aF0.31
aa(lp51
F0.54
aF0.32
aa(lp52
F0.54
aF0.33
aa(lp53
F0.54
aF0.34
aa(lp54
F0.54
aF0.35000000000000003
aa(lp55
F0.54
aF0.36000000000000004
aa(lp56
F0.54
aF0.37000000000000005
aa(lp57
F0.54
aF0.38000000000000006
aa(lp58
F0.55
aF-0.18
aa(lp59
F0.55
aF-0.16999999999999998
aa(lp60
F0.55
aF-0.16
aa(lp61
F0.55
aF-0.15
aa(lp62
F0.55
aF-0.13999999999999999
aa(lp63
F0.55
aF-0.13
aa(lp64
F0.55
aF-0.12
aa(lp65
F0.55
aF-0.10999999999999999
aa(lp66
F0.55
aF-0.09999999999999999
aa(lp67
F0.55
aF-0.09
aa(lp68
F0.55
aF-0.07999999999999999
aa(lp69
F0.55
aF-0.06999999999999999
aa(lp70
F0.55
aF-0.06
aa(lp71
F0.55
aF-0.04999999999999999
aa(lp72
F0.55
aF-0.03999999999999998
aa(lp73
F0.55
aF-0.03
aa(lp74
F0.55
aF-0.01999999999999999
aa(lp75
F0.55
aF-0.009999999999999981
aa(lp76
F0.55
aF0.0
aa(lp77
F0.55
aF0.010000000000000009
aa(lp78
F0.55
aF0.020000000000000018
aa(lp79
F0.55
aF0.03
aa(lp80
F0.55
aF0.04000000000000001
aa(lp81
F0.55
aF0.05000000000000002
aa(lp82
F0.55
aF0.06
aa(lp83
F0.55
aF0.07
aa(lp84
F0.55
aF0.08000000000000002
aa(lp85
F0.55
aF0.09000000000000002
aa(lp86
F0.55
aF0.10000000000000003
aa(lp87
F0.55
aF0.10999999999999999
aa(lp88
F0.55
aF0.12
aa(lp89
F0.55
aF0.13
aa(lp90
F0.55
aF0.14
aa(lp91
F0.55
aF0.15000000000000002
aa(lp92
F0.55
aF0.16000000000000003
aa(lp93
F0.55
aF0.17000000000000004
aa(lp94
F0.55
aF0.18
aa(lp95
F0.55
aF0.19
aa(lp96
F0.55
aF0.2
aa(lp97
F0.55
aF0.21000000000000002
aa(lp98
F0.55
aF0.22000000000000003
aa(lp99
F0.55
aF0.23000000000000004
aa(lp100
F0.55
aF0.24
aa(lp101
F0.55
aF0.25
aa(lp102
F0.55
aF0.26
aa(lp103
F0.55
aF0.27
aa(lp104
F0.55
aF0.28
aa(lp105
F0.55
aF0.29000000000000004
aa(lp106
F0.55
aF0.3
aa(lp107
F0.55
aF0.31
aa(lp108
F0.55
aF0.32
aa(lp109
F0.55
aF0.33
aa(lp110
F0.55
aF0.34
aa(lp111
F0.55
aF0.35000000000000003
aa(lp112
F0.55
aF0.36000000000000004
aa(lp113
F0.55
aF0.37000000000000005
aa(lp114
F0.55
aF0.38000000000000006
aa(lp115
F0.56
aF-0.18
aa(lp116
F0.56
aF-0.16999999999999998
aa(lp117
F0.56
aF-0.16
aa(lp118
F0.56
aF-0.15
aa(lp119
F0.56
aF-0.13999999999999999
aa(lp120
F0.56
aF-0.13
aa(lp121
F0.56
aF-0.12
aa(lp122
F0.56
aF-0.10999999999999999
aa(lp123
F0.56
aF-0.09999999999999999
aa(lp124
F0.56
aF-0.09
aa(lp125
F0.56
aF-0.07999999999999999
aa(lp126
F0.56
aF-0.06999999999999999
aa(lp127
F0.56
aF-0.06
aa(lp128
F0.56
aF-0.04999999999999999
aa(lp129
F0.56
aF-0.03999999999999998
aa(lp130
F0.56
aF-0.03
aa(lp131
F0.56
aF-0.01999999999999999
aa(lp132
F0.56
aF-0.009999999999999981
aa(lp133
F0.56
aF0.0
aa(lp134
F0.56
aF0.010000000000000009
aa(lp135
F0.56
aF0.020000000000000018
aa(lp136
F0.56
aF0.03
aa(lp137
F0.56
aF0.04000000000000001
aa(lp138
F0.56
aF0.05000000000000002
aa(lp139
F0.56
aF0.06
aa(lp140
F0.56
aF0.07
aa(lp141
F0.56
aF0.08000000000000002
aa(lp142
F0.56
aF0.09000000000000002
aa(lp143
F0.56
aF0.10000000000000003
aa(lp144
F0.56
aF0.10999999999999999
aa(lp145
F0.56
aF0.12
aa(lp146
F0.56
aF0.13
aa(lp147
F0.56
aF0.14
aa(lp148
F0.56
aF0.15000000000000002
aa(lp149
F0.56
aF0.16000000000000003
aa(lp150
F0.56
aF0.17000000000000004
aa(lp151
F0.56
aF0.18
aa(lp152
F0.56
aF0.19
aa(lp153
F0.56
aF0.2
aa(lp154
F0.56
aF0.21000000000000002
aa(lp155
F0.56
aF0.22000000000000003
aa(lp156
F0.56
aF0.23000000000000004
aa(lp157
F0.56
aF0.24
aa(lp158
F0.56
aF0.25
aa(lp159
F0.56
aF0.26
aa(lp160
F0.56
aF0.27
aa(lp161
F0.56
aF0.28
aa(lp162
F0.56
aF0.29000000000000004
aa(lp163
F0.56
aF0.3
aa(lp164
F0.56
aF0.31
aa(lp165
F0.56
aF0.32
aa(lp166
F0.56
aF0.33
aa(lp167
F0.56
aF0.34
aa(lp168
F0.56
aF0.35000000000000003
aa(lp169
F0.56
aF0.36000000000000004
aa(lp170
F0.56
aF0.37000000000000005
aa(lp171
F0.56
aF0.38000000000000006
aa(lp172
F0.5700000000000001
aF-0.18
aa(lp173
F0.5700000000000001
aF-0.16999999999999998
aa(lp174
F0.5700000000000001
aF-0.16
aa(lp175
F0.5700000000000001
aF-0.15
aa(lp176
F0.5700000000000001
aF-0.13999999999999999
aa(lp177
F0.5700000000000001
aF-0.13
aa(lp178
F0.5700000000000001
aF-0.12
aa(lp179
F0.5700000000000001
aF-0.10999999999999999
aa(lp180
F0.5700000000000001
aF-0.09999999999999999
aa(lp181
F0.5700000000000001
aF-0.09
aa(lp182
F0.5700000000000001
aF-0.07999999999999999
aa(lp183
F0.5700000000000001
aF-0.06999999999999999
aa(lp184
F0.5700000000000001
aF-0.06
aa(lp185
F0.5700000000000001
aF-0.04999999999999999
aa(lp186
F0.5700000000000001
aF-0.03999999999999998
aa(lp187
F0.5700000000000001
aF-0.03
aa(lp188
F0.5700000000000001
aF-0.01999999999999999
aa(lp189
F0.5700000000000001
aF-0.009999999999999981
aa(lp190
F0.5700000000000001
aF0.0
aa(lp191
F0.5700000000000001
aF0.010000000000000009
aa(lp192
F0.5700000000000001
aF0.020000000000000018
aa(lp193
F0.5700000000000001
aF0.03
aa(lp194
F0.5700000000000001
aF0.04000000000000001
aa(lp195
F0.5700000000000001
aF0.05000000000000002
aa(lp196
F0.5700000000000001
aF0.06
aa(lp197
F0.5700000000000001
aF0.07
aa(lp198
F0.5700000000000001
aF0.08000000000000002
aa(lp199
F0.5700000000000001
aF0.09000000000000002
aa(lp200
F0.5700000000000001
aF0.10000000000000003
aa(lp201
F0.5700000000000001
aF0.10999999999999999
aa(lp202
F0.5700000000000001
aF0.12
aa(lp203
F0.5700000000000001
aF0.13
aa(lp204
F0.5700000000000001
aF0.14
aa(lp205
F0.5700000000000001
aF0.15000000000000002
aa(lp206
F0.5700000000000001
aF0.16000000000000003
aa(lp207
F0.5700000000000001
aF0.17000000000000004
aa(lp208
F0.5700000000000001
aF0.18
aa(lp209
F0.5700000000000001
aF0.19
aa(lp210
F0.5700000000000001
aF0.2
aa(lp211
F0.5700000000000001
aF0.21000000000000002
aa(lp212
F0.5700000000000001
aF0.22000000000000003
aa(lp213
F0.5700000000000001
aF0.23000000000000004
aa(lp214
F0.5700000000000001
aF0.24
aa(lp215
F0.5700000000000001
aF0.25
aa(lp216
F0.5700000000000001
aF0.26
aa(lp217
F0.5700000000000001
aF0.27
aa(lp218
F0.5700000000000001
aF0.28
aa(lp219
F0.5700000000000001
aF0.29000000000000004
aa(lp220
F0.5700000000000001
aF0.3
aa(lp221
F0.5700000000000001
aF0.31
aa(lp222
F0.5700000000000001
aF0.32
aa(lp223
F0.5700000000000001
aF0.33
aa(lp224
F0.5700000000000001
aF0.34
aa(lp225
F0.5700000000000001
aF0.35000000000000003
aa(lp226
F0.5700000000000001
aF0.36000000000000004
aa(lp227
F0.5700000000000001
aF0.37000000000000005
aa(lp228
F0.5700000000000001
aF0.38000000000000006
aa(lp229
F0.5800000000000001
aF-0.18
aa(lp230
F0.5800000000000001
aF-0.16999999999999998
aa(lp231
F0.5800000000000001
aF-0.16
aa(lp232
F0.5800000000000001
aF-0.15
aa(lp233
F0.5800000000000001
aF-0.13999999999999999
aa(lp234
F0.5800000000000001
aF-0.13
aa(lp235
F0.5800000000000001
aF-0.12
aa(lp236
F0.5800000000000001
aF-0.10999999999999999
aa(lp237
F0.5800000000000001
aF-0.09999999999999999
aa(lp238
F0.5800000000000001
aF-0.09
aa(lp239
F0.5800000000000001
aF-0.07999999999999999
aa(lp240
F0.5800000000000001
aF-0.06999999999999999
aa(lp241
F0.5800000000000001
aF-0.06
aa(lp242
F0.5800000000000001
aF-0.04999999999999999
aa(lp243
F0.5800000000000001
aF-0.03999999999999998
aa(lp244
F0.5800000000000001
aF-0.03
aa(lp245
F0.5800000000000001
aF-0.01999999999999999
aa(lp246
F0.5800000000000001
aF-0.009999999999999981
aa(lp247
F0.5800000000000001
aF0.0
aa(lp248
F0.5800000000000001
aF0.010000000000000009
aa(lp249
F0.5800000000000001
aF0.020000000000000018
aa(lp250
F0.5800000000000001
aF0.03
aa(lp251
F0.5800000000000001
aF0.04000000000000001
aa(lp252
F0.5800000000000001
aF0.05000000000000002
aa(lp253
F0.5800000000000001
aF0.06
aa(lp254
F0.5800000000000001
aF0.07
aa(lp255
F0.5800000000000001
aF0.08000000000000002
aa(lp256
F0.5800000000000001
aF0.09000000000000002
aa(lp257
F0.5800000000000001
aF0.10000000000000003
aa(lp258
F0.5800000000000001
aF0.10999999999999999
aa(lp259
F0.5800000000000001
aF0.12
aa(lp260
F0.5800000000000001
aF0.13
aa(lp261
F0.5800000000000001
aF0.14
aa(lp262
F0.5800000000000001
aF0.15000000000000002
aa(lp263
F0.5800000000000001
aF0.16000000000000003
aa(lp264
F0.5800000000000001
aF0.17000000000000004
aa(lp265
F0.5800000000000001
aF0.18
aa(lp266
F0.5800000000000001
aF0.19
aa(lp267
F0.5800000000000001
aF0.2
aa(lp268
F0.5800000000000001
aF0.21000000000000002
aa(lp269
F0.5800000000000001
aF0.22000000000000003
aa(lp270
F0.5800000000000001
aF0.23000000000000004
aa(lp271
F0.5800000000000001
aF0.24
aa(lp272
F0.5800000000000001
aF0.25
aa(lp273
F0.5800000000000001
aF0.26
aa(lp274
F0.5800000000000001
aF0.27
aa(lp275
F0.5800000000000001
aF0.28
aa(lp276
F0.5800000000000001
aF0.29000000000000004
aa(lp277
F0.5800000000000001
aF0.3
aa(lp278
F0.5800000000000001
aF0.31
aa(lp279
F0.5800000000000001
aF0.32
aa(lp280
F0.5800000000000001
aF0.33
aa(lp281
F0.5800000000000001
aF0.34
aa(lp282
F0.5800000000000001
aF0.35000000000000003
aa(lp283
F0.5800000000000001
aF0.36000000000000004
aa(lp284
F0.5800000000000001
aF0.37000000000000005
aa(lp285
F0.5800000000000001
aF0.38000000000000006
aa(lp286
F0.5900000000000001
aF-0.18
aa(lp287
F0.5900000000000001
aF-0.16999999999999998
aa(lp288
F0.5900000000000001
aF-0.16
aa(lp289
F0.5900000000000001
aF-0.15
aa(lp290
F0.5900000000000001
aF-0.13999999999999999
aa(lp291
F0.5900000000000001
aF-0.13
aa(lp292
F0.5900000000000001
aF-0.12
aa(lp293
F0.5900000000000001
aF-0.10999999999999999
aa(lp294
F0.5900000000000001
aF-0.09999999999999999
aa(lp295
F0.5900000000000001
aF-0.09
aa(lp296
F0.5900000000000001
aF-0.07999999999999999
aa(lp297
F0.5900000000000001
aF-0.06999999999999999
aa(lp298
F0.5900000000000001
aF-0.06
aa(lp299
F0.5900000000000001
aF-0.04999999999999999
aa(lp300
F0.5900000000000001
aF-0.03999999999999998
aa(lp301
F0.5900000000000001
aF-0.03
aa(lp302
F0.5900000000000001
aF-0.01999999999999999
aa(lp303
F0.5900000000000001
aF-0.009999999999999981
aa(lp304
F0.5900000000000001
aF0.0
aa(lp305
F0.5900000000000001
aF0.010000000000000009
aa(lp306
F0.5900000000000001
aF0.020000000000000018
aa(lp307
F0.5900000000000001
aF0.03
aa(lp308
F0.5900000000000001
aF0.04000000000000001
aa(lp309
F0.5900000000000001
aF0.05000000000000002
aa(lp310
F0.5900000000000001
aF0.06
aa(lp311
F0.5900000000000001
aF0.07
aa(lp312
F0.5900000000000001
aF0.08000000000000002
aa(lp313
F0.5900000000000001
aF0.09000000000000002
aa(lp314
F0.5900000000000001
aF0.10000000000000003
aa(lp315
F0.5900000000000001
aF0.10999999999999999
aa(lp316
F0.5900000000000001
aF0.12
aa(lp317
F0.5900000000000001
aF0.13
aa(lp318
F0.5900000000000001
aF0.14
aa(lp319
F0.5900000000000001
aF0.15000000000000002
aa(lp320
F0.5900000000000001
aF0.16000000000000003
aa(lp321
F0.5900000000000001
aF0.17000000000000004
aa(lp322
F0.5900000000000001
aF0.18
aa(lp323
F0.5900000000000001
aF0.19
aa(lp324
F0.5900000000000001
aF0.2
aa(lp325
F0.5900000000000001
aF0.21000000000000002
aa(lp326
F0.5900000000000001
aF0.22000000000000003
aa(lp327
F0.5900000000000001
aF0.23000000000000004
aa(lp328
F0.5900000000000001
aF0.24
aa(lp329
F0.5900000000000001
aF0.25
aa(lp330
F0.5900000000000001
aF0.26
aa(lp331
F0.5900000000000001
aF0.27
aa(lp332
F0.5900000000000001
aF0.28
aa(lp333
F0.5900000000000001
aF0.29000000000000004
aa(lp334
F0.5900000000000001
aF0.3
aa(lp335
F0.5900000000000001
aF0.31
aa(lp336
F0.5900000000000001
aF0.32
aa(lp337
F0.5900000000000001
aF0.33
aa(lp338
F0.5900000000000001
aF0.34
aa(lp339
F0.5900000000000001
aF0.35000000000000003
aa(lp340
F0.5900000000000001
aF0.36000000000000004
aa(lp341
F0.5900000000000001
aF0.37000000000000005
aa(lp342
F0.5900000000000001
aF0.38000000000000006
aa(lp343
F0.6000000000000001
aF-0.18
aa(lp344
F0.6000000000000001
aF-0.16999999999999998
aa(lp345
F0.6000000000000001
aF-0.16
aa(lp346
F0.6000000000000001
aF-0.15
aa(lp347
F0.6000000000000001
aF-0.13999999999999999
aa(lp348
F0.6000000000000001
aF-0.13
aa(lp349
F0.6000000000000001
aF-0.12
aa(lp350
F0.6000000000000001
aF-0.10999999999999999
aa(lp351
F0.6000000000000001
aF-0.09999999999999999
aa(lp352
F0.6000000000000001
aF-0.09
aa(lp353
F0.6000000000000001
aF-0.07999999999999999
aa(lp354
F0.6000000000000001
aF-0.06999999999999999
aa(lp355
F0.6000000000000001
aF-0.06
aa(lp356
F0.6000000000000001
aF-0.04999999999999999
aa(lp357
F0.6000000000000001
aF-0.03999999999999998
aa(lp358
F0.6000000000000001
aF-0.03
aa(lp359
F0.6000000000000001
aF-0.01999999999999999
aa(lp360
F0.6000000000000001
aF-0.009999999999999981
aa(lp361
F0.6000000000000001
aF0.0
aa(lp362
F0.6000000000000001
aF0.010000000000000009
aa(lp363
F0.6000000000000001
aF0.020000000000000018
aa(lp364
F0.6000000000000001
aF0.03
aa(lp365
F0.6000000000000001
aF0.04000000000000001
aa(lp366
F0.6000000000000001
aF0.05000000000000002
aa(lp367
F0.6000000000000001
aF0.06
aa(lp368
F0.6000000000000001
aF0.07
aa(lp369
F0.6000000000000001
aF0.08000000000000002
aa(lp370
F0.6000000000000001
aF0.09000000000000002
aa(lp371
F0.6000000000000001
aF0.10000000000000003
aa(lp372
F0.6000000000000001
aF0.10999999999999999
aa(lp373
F0.6000000000000001
aF0.12
aa(lp374
F0.6000000000000001
aF0.13
aa(lp375
F0.6000000000000001
aF0.14
aa(lp376
F0.6000000000000001
aF0.15000000000000002
aa(lp377
F0.6000000000000001
aF0.16000000000000003
aa(lp378
F0.6000000000000001
aF0.17000000000000004
aa(lp379
F0.6000000000000001
aF0.18
aa(lp380
F0.6000000000000001
aF0.19
aa(lp381
F0.6000000000000001
aF0.2
aa(lp382
F0.6000000000000001
aF0.21000000000000002
aa(lp383
F0.6000000000000001
aF0.22000000000000003
aa(lp384
F0.6000000000000001
aF0.23000000000000004
aa(lp385
F0.6000000000000001
aF0.24
aa(lp386
F0.6000000000000001
aF0.25
aa(lp387
F0.6000000000000001
aF0.26
aa(lp388
F0.6000000000000001
aF0.27
aa(lp389
F0.6000000000000001
aF0.28
aa(lp390
F0.6000000000000001
aF0.29000000000000004
aa(lp391
F0.6000000000000001
aF0.3
aa(lp392
F0.6000000000000001
aF0.31
aa(lp393
F0.6000000000000001
aF0.32
aa(lp394
F0.6000000000000001
aF0.33
aa(lp395
F0.6000000000000001
aF0.34
aa(lp396
F0.6000000000000001
aF0.35000000000000003
aa(lp397
F0.6000000000000001
aF0.36000000000000004
aa(lp398
F0.6000000000000001
aF0.37000000000000005
aa(lp399
F0.6000000000000001
aF0.38000000000000006
aa(lp400
F0.6100000000000001
aF-0.18
aa(lp401
F0.6100000000000001
aF-0.16999999999999998
aa(lp402
F0.6100000000000001
aF-0.16
aa(lp403
F0.6100000000000001
aF-0.15
aa(lp404
F0.6100000000000001
aF-0.13999999999999999
aa(lp405
F0.6100000000000001
aF-0.13
aa(lp406
F0.6100000000000001
aF-0.12
aa(lp407
F0.6100000000000001
aF-0.10999999999999999
aa(lp408
F0.6100000000000001
aF-0.09999999999999999
aa(lp409
F0.6100000000000001
aF-0.09
aa(lp410
F0.6100000000000001
aF-0.07999999999999999
aa(lp411
F0.6100000000000001
aF-0.06999999999999999
aa(lp412
F0.6100000000000001
aF-0.06
aa(lp413
F0.6100000000000001
aF-0.04999999999999999
aa(lp414
F0.6100000000000001
aF-0.03999999999999998
aa(lp415
F0.6100000000000001
aF-0.03
aa(lp416
F0.6100000000000001
aF-0.01999999999999999
aa(lp417
F0.6100000000000001
aF-0.009999999999999981
aa(lp418
F0.6100000000000001
aF0.0
aa(lp419
F0.6100000000000001
aF0.010000000000000009
aa(lp420
F0.6100000000000001
aF0.020000000000000018
aa(lp421
F0.6100000000000001
aF0.03
aa(lp422
F0.6100000000000001
aF0.04000000000000001
aa(lp423
F0.6100000000000001
aF0.05000000000000002
aa(lp424
F0.6100000000000001
aF0.06
aa(lp425
F0.6100000000000001
aF0.07
aa(lp426
F0.6100000000000001
aF0.08000000000000002
aa(lp427
F0.6100000000000001
aF0.09000000000000002
aa(lp428
F0.6100000000000001
aF0.10000000000000003
aa(lp429
F0.6100000000000001
aF0.10999999999999999
aa(lp430
F0.6100000000000001
aF0.12
aa(lp431
F0.6100000000000001
aF0.13
aa(lp432
F0.6100000000000001
aF0.14
aa(lp433
F0.6100000000000001
aF0.15000000000000002
aa(lp434
F0.6100000000000001
aF0.16000000000000003
aa(lp435
F0.6100000000000001
aF0.17000000000000004
aa(lp436
F0.6100000000000001
aF0.18
aa(lp437
F0.6100000000000001
aF0.19
aa(lp438
F0.6100000000000001
aF0.2
aa(lp439
F0.6100000000000001
aF0.21000000000000002
aa(lp440
F0.6100000000000001
aF0.22000000000000003
aa(lp441
F0.6100000000000001
aF0.23000000000000004
aa(lp442
F0.6100000000000001
aF0.24
aa(lp443
F0.6100000000000001
aF0.25
aa(lp444
F0.6100000000000001
aF0.26
aa(lp445
F0.6100000000000001
aF0.27
aa(lp446
F0.6100000000000001
aF0.28
aa(lp447
F0.6100000000000001
aF0.29000000000000004
aa(lp448
F0.6100000000000001
aF0.3
aa(lp449
F0.6100000000000001
aF0.31
aa(lp450
F0.6100000000000001
aF0.32
aa(lp451
F0.6100000000000001
aF0.33
aa(lp452
F0.6100000000000001
aF0.34
aa(lp453
F0.6100000000000001
aF0.35000000000000003
aa(lp454
F0.6100000000000001
aF0.36000000000000004
aa(lp455
F0.6100000000000001
aF0.37000000000000005
aa(lp456
F0.6100000000000001
aF0.38000000000000006
aa(lp457
F0.62
aF-0.18
aa(lp458
F0.62
aF-0.16999999999999998
aa(lp459
F0.62
aF-0.16
aa(lp460
F0.62
aF-0.15
aa(lp461
F0.62
aF-0.13999999999999999
aa(lp462
F0.62
aF-0.13
aa(lp463
F0.62
aF-0.12
aa(lp464
F0.62
aF-0.10999999999999999
aa(lp465
F0.62
aF-0.09999999999999999
aa(lp466
F0.62
aF-0.09
aa(lp467
F0.62
aF-0.07999999999999999
aa(lp468
F0.62
aF-0.06999999999999999
aa(lp469
F0.62
aF-0.06
aa(lp470
F0.62
aF-0.04999999999999999
aa(lp471
F0.62
aF-0.03999999999999998
aa(lp472
F0.62
aF-0.03
aa(lp473
F0.62
aF-0.01999999999999999
aa(lp474
F0.62
aF-0.009999999999999981
aa(lp475
F0.62
aF0.0
aa(lp476
F0.62
aF0.010000000000000009
aa(lp477
F0.62
aF0.020000000000000018
aa(lp478
F0.62
aF0.03
aa(lp479
F0.62
aF0.04000000000000001
aa(lp480
F0.62
aF0.05000000000000002
aa(lp481
F0.62
aF0.06
aa(lp482
F0.62
aF0.07
aa(lp483
F0.62
aF0.08000000000000002
aa(lp484
F0.62
aF0.09000000000000002
aa(lp485
F0.62
aF0.10000000000000003
aa(lp486
F0.62
aF0.10999999999999999
aa(lp487
F0.62
aF0.12
aa(lp488
F0.62
aF0.13
aa(lp489
F0.62
aF0.14
aa(lp490
F0.62
aF0.15000000000000002
aa(lp491
F0.62
aF0.16000000000000003
aa(lp492
F0.62
aF0.17000000000000004
aa(lp493
F0.62
aF0.18
aa(lp494
F0.62
aF0.19
aa(lp495
F0.62
aF0.2
aa(lp496
F0.62
aF0.21000000000000002
aa(lp497
F0.62
aF0.22000000000000003
aa(lp498
F0.62
aF0.23000000000000004
aa(lp499
F0.62
aF0.24
aa(lp500
F0.62
aF0.25
aa(lp501
F0.62
aF0.26
aa(lp502
F0.62
aF0.27
aa(lp503
F0.62
aF0.28
aa(lp504
F0.62
aF0.29000000000000004
aa(lp505
F0.62
aF0.3
aa(lp506
F0.62
aF0.31
aa(lp507
F0.62
aF0.32
aa(lp508
F0.62
aF0.33
aa(lp509
F0.62
aF0.34
aa(lp510
F0.62
aF0.35000000000000003
aa(lp511
F0.62
aF0.36000000000000004
aa(lp512
F0.62
aF0.37000000000000005
aa(lp513
F0.62
aF0.38000000000000006
aa(lp514
F0.63
aF-0.18
aa(lp515
F0.63
aF-0.16999999999999998
aa(lp516
F0.63
aF-0.16
aa(lp517
F0.63
aF-0.15
aa(lp518
F0.63
aF-0.13999999999999999
aa(lp519
F0.63
aF-0.13
aa(lp520
F0.63
aF-0.12
aa(lp521
F0.63
aF-0.10999999999999999
aa(lp522
F0.63
aF-0.09999999999999999
aa(lp523
F0.63
aF-0.09
aa(lp524
F0.63
aF-0.07999999999999999
aa(lp525
F0.63
aF-0.06999999999999999
aa(lp526
F0.63
aF-0.06
aa(lp527
F0.63
aF-0.04999999999999999
aa(lp528
F0.63
aF-0.03999999999999998
aa(lp529
F0.63
aF-0.03
aa(lp530
F0.63
aF-0.01999999999999999
aa(lp531
F0.63
aF-0.009999999999999981
aa(lp532
F0.63
aF0.0
aa(lp533
F0.63
aF0.010000000000000009
aa(lp534
F0.63
aF0.020000000000000018
aa(lp535
F0.63
aF0.03
aa(lp536
F0.63
aF0.04000000000000001
aa(lp537
F0.63
aF0.05000000000000002
aa(lp538
F0.63
aF0.06
aa(lp539
F0.63
aF0.07
aa(lp540
F0.63
aF0.08000000000000002
aa(lp541
F0.63
aF0.09000000000000002
aa(lp542
F0.63
aF0.10000000000000003
aa(lp543
F0.63
aF0.10999999999999999
aa(lp544
F0.63
aF0.12
aa(lp545
F0.63
aF0.13
aa(lp546
F0.63
aF0.14
aa(lp547
F0.63
aF0.15000000000000002
aa(lp548
F0.63
aF0.16000000000000003
aa(lp549
F0.63
aF0.17000000000000004
aa(lp550
F0.63
aF0.18
aa(lp551
F0.63
aF0.19
aa(lp552
F0.63
aF0.2
aa(lp553
F0.63
aF0.21000000000000002
aa(lp554
F0.63
aF0.22000000000000003
aa(lp555
F0.63
aF0.23000000000000004
aa(lp556
F0.63
aF0.24
aa(lp557
F0.63
aF0.25
aa(lp558
F0.63
aF0.26
aa(lp559
F0.63
aF0.27
aa(lp560
F0.63
aF0.28
aa(lp561
F0.63
aF0.29000000000000004
aa(lp562
F0.63
aF0.3
aa(lp563
F0.63
aF0.31
aa(lp564
F0.63
aF0.32
aa(lp565
F0.63
aF0.33
aa(lp566
F0.63
aF0.34
aa(lp567
F0.63
aF0.35000000000000003
aa(lp568
F0.63
aF0.36000000000000004
aa(lp569
F0.63
aF0.37000000000000005
aa(lp570
F0.63
aF0.38000000000000006
aa(lp571
F0.64
aF-0.18
aa(lp572
F0.64
aF-0.16999999999999998
aa(lp573
F0.64
aF-0.16
aa(lp574
F0.64
aF-0.15
aa(lp575
F0.64
aF-0.13999999999999999
aa(lp576
F0.64
aF-0.13
aa(lp577
F0.64
aF-0.12
aa(lp578
F0.64
aF-0.10999999999999999
aa(lp579
F0.64
aF-0.09999999999999999
aa(lp580
F0.64
aF-0.09
aa(lp581
F0.64
aF-0.07999999999999999
aa(lp582
F0.64
aF-0.06999999999999999
aa(lp583
F0.64
aF-0.06
aa(lp584
F0.64
aF-0.04999999999999999
aa(lp585
F0.64
aF-0.03999999999999998
aa(lp586
F0.64
aF-0.03
aa(lp587
F0.64
aF-0.01999999999999999
aa(lp588
F0.64
aF-0.009999999999999981
aa(lp589
F0.64
aF0.0
aa(lp590
F0.64
aF0.010000000000000009
aa(lp591
F0.64
aF0.020000000000000018
aa(lp592
F0.64
aF0.03
aa(lp593
F0.64
aF0.04000000000000001
aa(lp594
F0.64
aF0.05000000000000002
aa(lp595
F0.64
aF0.06
aa(lp596
F0.64
aF0.07
aa(lp597
F0.64
aF0.08000000000000002
aa(lp598
F0.64
aF0.09000000000000002
aa(lp599
F0.64
aF0.10000000000000003
aa(lp600
F0.64
aF0.10999999999999999
aa(lp601
F0.64
aF0.12
aa(lp602
F0.64
aF0.13
aa(lp603
F0.64
aF0.14
aa(lp604
F0.64
aF0.15000000000000002
aa(lp605
F0.64
aF0.16000000000000003
aa(lp606
F0.64
aF0.17000000000000004
aa(lp607
F0.64
aF0.18
aa(lp608
F0.64
aF0.19
aa(lp609
F0.64
aF0.2
aa(lp610
F0.64
aF0.21000000000000002
aa(lp611
F0.64
aF0.22000000000000003
aa(lp612
F0.64
aF0.23000000000000004
aa(lp613
F0.64
aF0.24
aa(lp614
F0.64
aF0.25
aa(lp615
F0.64
aF0.26
aa(lp616
F0.64
aF0.27
aa(lp617
F0.64
aF0.28
aa(lp618
F0.64
aF0.29000000000000004
aa(lp619
F0.64
aF0.3
aa(lp620
F0.64
aF0.31
aa(lp621
F0.64
aF0.32
aa(lp622
F0.64
aF0.33
aa(lp623
F0.64
aF0.34
aa(lp624
F0.64
aF0.35000000000000003
aa(lp625
F0.64
aF0.36000000000000004
aa(lp626
F0.64
aF0.37000000000000005
aa(lp627
F0.64
aF0.38000000000000006
aa(lp628
F0.65
aF-0.18
aa(lp629
F0.65
aF-0.16999999999999998
aa(lp630
F0.65
aF-0.16
aa(lp631
F0.65
aF-0.15
aa(lp632
F0.65
aF-0.13999999999999999
aa(lp633
F0.65
aF-0.13
aa(lp634
F0.65
aF-0.12
aa(lp635
F0.65
aF-0.10999999999999999
aa(lp636
F0.65
aF-0.09999999999999999
aa(lp637
F0.65
aF-0.09
aa(lp638
F0.65
aF-0.07999999999999999
aa(lp639
F0.65
aF-0.06999999999999999
aa(lp640
F0.65
aF-0.06
aa(lp641
F0.65
aF-0.04999999999999999
aa(lp642
F0.65
aF-0.03999999999999998
aa(lp643
F0.65
aF-0.03
aa(lp644
F0.65
aF-0.01999999999999999
aa(lp645
F0.65
aF-0.009999999999999981
aa(lp646
F0.65
aF0.0
aa(lp647
F0.65
aF0.010000000000000009
aa(lp648
F0.65
aF0.020000000000000018
aa(lp649
F0.65
aF0.03
aa(lp650
F0.65
aF0.04000000000000001
aa(lp651
F0.65
aF0.05000000000000002
aa(lp652
F0.65
aF0.06
aa(lp653
F0.65
aF0.07
aa(lp654
F0.65
aF0.08000000000000002
aa(lp655
F0.65
aF0.09000000000000002
aa(lp656
F0.65
aF0.10000000000000003
aa(lp657
F0.65
aF0.10999999999999999
aa(lp658
F0.65
aF0.12
aa(lp659
F0.65
aF0.13
aa(lp660
F0.65
aF0.14
aa(lp661
F0.65
aF0.15000000000000002
aa(lp662
F0.65
aF0.16000000000000003
aa(lp663
F0.65
aF0.17000000000000004
aa(lp664
F0.65
aF0.18
aa(lp665
F0.65
aF0.19
aa(lp666
F0.65
aF0.2
aa(lp667
F0.65
aF0.21000000000000002
aa(lp668
F0.65
aF0.22000000000000003
aa(lp669
F0.65
aF0.23000000000000004
aa(lp670
F0.65
aF0.24
aa(lp671
F0.65
aF0.25
aa(lp672
F0.65
aF0.26
aa(lp673
F0.65
aF0.27
aa(lp674
F0.65
aF0.28
aa(lp675
F0.65
aF0.29000000000000004
aa(lp676
F0.65
aF0.3
aa(lp677
F0.65
aF0.31
aa(lp678
F0.65
aF0.32
aa(lp679
F0.65
aF0.33
aa(lp680
F0.65
aF0.34
aa(lp681
F0.65
aF0.35000000000000003
aa(lp682
F0.65
aF0.36000000000000004
aa(lp683
F0.65
aF0.37000000000000005
aa(lp684
F0.65
aF0.38000000000000006
aa(lp685
F0.66
aF-0.18
aa(lp686
F0.66
aF-0.16999999999999998
aa(lp687
F0.66
aF-0.16
aa(lp688
F0.66
aF-0.15
aa(lp689
F0.66
aF-0.13999999999999999
aa(lp690
F0.66
aF-0.13
aa(lp691
F0.66
aF-0.12
aa(lp692
F0.66
aF-0.10999999999999999
aa(lp693
F0.66
aF-0.09999999999999999
aa(lp694
F0.66
aF-0.09
aa(lp695
F0.66
aF-0.07999999999999999
aa(lp696
F0.66
aF-0.06999999999999999
aa(lp697
F0.66
aF-0.06
aa(lp698
F0.66
aF-0.04999999999999999
aa(lp699
F0.66
aF-0.03999999999999998
aa(lp700
F0.66
aF-0.03
aa(lp701
F0.66
aF-0.01999999999999999
aa(lp702
F0.66
aF-0.009999999999999981
aa(lp703
F0.66
aF0.0
aa(lp704
F0.66
aF0.010000000000000009
aa(lp705
F0.66
aF0.020000000000000018
aa(lp706
F0.66
aF0.03
aa(lp707
F0.66
aF0.04000000000000001
aa(lp708
F0.66
aF0.05000000000000002
aa(lp709
F0.66
aF0.06
aa(lp710
F0.66
aF0.07
aa(lp711
F0.66
aF0.08000000000000002
aa(lp712
F0.66
aF0.09000000000000002
aa(lp713
F0.66
aF0.10000000000000003
aa(lp714
F0.66
aF0.10999999999999999
aa(lp715
F0.66
aF0.12
aa(lp716
F0.66
aF0.13
aa(lp717
F0.66
aF0.14
aa(lp718
F0.66
aF0.15000000000000002
aa(lp719
F0.66
aF0.16000000000000003
aa(lp720
F0.66
aF0.17000000000000004
aa(lp721
F0.66
aF0.18
aa(lp722
F0.66
aF0.19
aa(lp723
F0.66
aF0.2
aa(lp724
F0.66
aF0.21000000000000002
aa(lp725
F0.66
aF0.22000000000000003
aa(lp726
F0.66
aF0.23000000000000004
aa(lp727
F0.66
aF0.24
aa(lp728
F0.66
aF0.25
aa(lp729
F0.66
aF0.26
aa(lp730
F0.66
aF0.27
aa(lp731
F0.66
aF0.28
aa(lp732
F0.66
aF0.29000000000000004
aa(lp733
F0.66
aF0.3
aa(lp734
F0.66
aF0.31
aa(lp735
F0.66
aF0.32
aa(lp736
F0.66
aF0.33
aa(lp737
F0.66
aF0.34
aa(lp738
F0.66
aF0.35000000000000003
aa(lp739
F0.66
aF0.36000000000000004
aa(lp740
F0.66
aF0.37000000000000005
aa(lp741
F0.66
aF0.38000000000000006
aa(lp742
F0.67
aF-0.18
aa(lp743
F0.67
aF-0.16999999999999998
aa(lp744
F0.67
aF-0.16
aa(lp745
F0.67
aF-0.15
aa(lp746
F0.67
aF-0.13999999999999999
aa(lp747
F0.67
aF-0.13
aa(lp748
F0.67
aF-0.12
aa(lp749
F0.67
aF-0.10999999999999999
aa(lp750
F0.67
aF-0.09999999999999999
aa(lp751
F0.67
aF-0.09
aa(lp752
F0.67
aF-0.07999999999999999
aa(lp753
F0.67
aF-0.06999999999999999
aa(lp754
F0.67
aF-0.06
aa(lp755
F0.67
aF-0.04999999999999999
aa(lp756
F0.67
aF-0.03999999999999998
aa(lp757
F0.67
aF-0.03
aa(lp758
F0.67
aF-0.01999999999999999
aa(lp759
F0.67
aF-0.009999999999999981
aa(lp760
F0.67
aF0.0
aa(lp761
F0.67
aF0.010000000000000009
aa(lp762
F0.67
aF0.020000000000000018
aa(lp763
F0.67
aF0.03
aa(lp764
F0.67
aF0.04000000000000001
aa(lp765
F0.67
aF0.05000000000000002
aa(lp766
F0.67
aF0.06
aa(lp767
F0.67
aF0.07
aa(lp768
F0.67
aF0.08000000000000002
aa(lp769
F0.67
aF0.09000000000000002
aa(lp770
F0.67
aF0.10000000000000003
aa(lp771
F0.67
aF0.10999999999999999
aa(lp772
F0.67
aF0.12
aa(lp773
F0.67
aF0.13
aa(lp774
F0.67
aF0.14
aa(lp775
F0.67
aF0.15000000000000002
aa(lp776
F0.67
aF0.16000000000000003
aa(lp777
F0.67
aF0.17000000000000004
aa(lp778
F0.67
aF0.18
aa(lp779
F0.67
aF0.19
aa(lp780
F0.67
aF0.2
aa(lp781
F0.67
aF0.21000000000000002
aa(lp782
F0.67
aF0.22000000000000003
aa(lp783
F0.67
aF0.23000000000000004
aa(lp784
F0.67
aF0.24
aa(lp785
F0.67
aF0.25
aa(lp786
F0.67
aF0.26
aa(lp787
F0.67
aF0.27
aa(lp788
F0.67
aF0.28
aa(lp789
F0.67
aF0.29000000000000004
aa(lp790
F0.67
aF0.3
aa(lp791
F0.67
aF0.31
aa(lp792
F0.67
aF0.32
aa(lp793
F0.67
aF0.33
aa(lp794
F0.67
aF0.34
aa(lp795
F0.67
aF0.35000000000000003
aa(lp796
F0.67
aF0.36000000000000004
aa(lp797
F0.67
aF0.37000000000000005
aa(lp798
F0.67
aF0.38000000000000006
aa(lp799
F0.68
aF-0.18
aa(lp800
F0.68
aF-0.16999999999999998
aa(lp801
F0.68
aF-0.16
aa(lp802
F0.68
aF-0.15
aa(lp803
F0.68
aF-0.13999999999999999
aa(lp804
F0.68
aF-0.13
aa(lp805
F0.68
aF-0.12
aa(lp806
F0.68
aF-0.10999999999999999
aa(lp807
F0.68
aF-0.09999999999999999
aa(lp808
F0.68
aF-0.09
aa(lp809
F0.68
aF-0.07999999999999999
aa(lp810
F0.68
aF-0.06999999999999999
aa(lp811
F0.68
aF-0.06
aa(lp812
F0.68
aF-0.04999999999999999
aa(lp813
F0.68
aF-0.03999999999999998
aa(lp814
F0.68
aF-0.03
aa(lp815
F0.68
aF-0.01999999999999999
aa(lp816
F0.68
aF-0.009999999999999981
aa(lp817
F0.68
aF0.0
aa(lp818
F0.68
aF0.010000000000000009
aa(lp819
F0.68
aF0.020000000000000018
aa(lp820
F0.68
aF0.03
aa(lp821
F0.68
aF0.04000000000000001
aa(lp822
F0.68
aF0.05000000000000002
aa(lp823
F0.68
aF0.06
aa(lp824
F0.68
aF0.07
aa(lp825
F0.68
aF0.08000000000000002
aa(lp826
F0.68
aF0.09000000000000002
aa(lp827
F0.68
aF0.10000000000000003
aa(lp828
F0.68
aF0.10999999999999999
aa(lp829
F0.68
aF0.12
aa(lp830
F0.68
aF0.13
aa(lp831
F0.68
aF0.14
aa(lp832
F0.68
aF0.15000000000000002
aa(lp833
F0.68
aF0.16000000000000003
aa(lp834
F0.68
aF0.17000000000000004
aa(lp835
F0.68
aF0.18
aa(lp836
F0.68
aF0.19
aa(lp837
F0.68
aF0.2
aa(lp838
F0.68
aF0.21000000000000002
aa(lp839
F0.68
aF0.22000000000000003
aa(lp840
F0.68
aF0.23000000000000004
aa(lp841
F0.68
aF0.24
aa(lp842
F0.68
aF0.25
aa(lp843
F0.68
aF0.26
aa(lp844
F0.68
aF0.27
aa(lp845
F0.68
aF0.28
aa(lp846
F0.68
aF0.29000000000000004
aa(lp847
F0.68
aF0.3
aa(lp848
F0.68
aF0.31
aa(lp849
F0.68
aF0.32
aa(lp850
F0.68
aF0.33
aa(lp851
F0.68
aF0.34
aa(lp852
F0.68
aF0.35000000000000003
aa(lp853
F0.68
aF0.36000000000000004
aa(lp854
F0.68
aF0.37000000000000005
aa(lp855
F0.68
aF0.38000000000000006
aa(lp856
F0.6900000000000001
aF-0.18
aa(lp857
F0.6900000000000001
aF-0.16999999999999998
aa(lp858
F0.6900000000000001
aF-0.16
aa(lp859
F0.6900000000000001
aF-0.15
aa(lp860
F0.6900000000000001
aF-0.13999999999999999
aa(lp861
F0.6900000000000001
aF-0.13
aa(lp862
F0.6900000000000001
aF-0.12
aa(lp863
F0.6900000000000001
aF-0.10999999999999999
aa(lp864
F0.6900000000000001
aF-0.09999999999999999
aa(lp865
F0.6900000000000001
aF-0.09
aa(lp866
F0.6900000000000001
aF-0.07999999999999999
aa(lp867
F0.6900000000000001
aF-0.06999999999999999
aa(lp868
F0.6900000000000001
aF-0.06
aa(lp869
F0.6900000000000001
aF-0.04999999999999999
aa(lp870
F0.6900000000000001
aF-0.03999999999999998
aa(lp871
F0.6900000000000001
aF-0.03
aa(lp872
F0.6900000000000001
aF-0.01999999999999999
aa(lp873
F0.6900000000000001
aF-0.009999999999999981
aa(lp874
F0.6900000000000001
aF0.0
aa(lp875
F0.6900000000000001
aF0.010000000000000009
aa(lp876
F0.6900000000000001
aF0.020000000000000018
aa(lp877
F0.6900000000000001
aF0.03
aa(lp878
F0.6900000000000001
aF0.04000000000000001
aa(lp879
F0.6900000000000001
aF0.05000000000000002
aa(lp880
F0.6900000000000001
aF0.06
aa(lp881
F0.6900000000000001
aF0.07
aa(lp882
F0.6900000000000001
aF0.08000000000000002
aa(lp883
F0.6900000000000001
aF0.09000000000000002
aa(lp884
F0.6900000000000001
aF0.10000000000000003
aa(lp885
F0.6900000000000001
aF0.10999999999999999
aa(lp886
F0.6900000000000001
aF0.12
aa(lp887
F0.6900000000000001
aF0.13
aa(lp888
F0.6900000000000001
aF0.14
aa(lp889
F0.6900000000000001
aF0.15000000000000002
aa(lp890
F0.6900000000000001
aF0.16000000000000003
aa(lp891
F0.6900000000000001
aF0.17000000000000004
aa(lp892
F0.6900000000000001
aF0.18
aa(lp893
F0.6900000000000001
aF0.19
aa(lp894
F0.6900000000000001
aF0.2
aa(lp895
F0.6900000000000001
aF0.21000000000000002
aa(lp896
F0.6900000000000001
aF0.22000000000000003
aa(lp897
F0.6900000000000001
aF0.23000000000000004
aa(lp898
F0.6900000000000001
aF0.24
aa(lp899
F0.6900000000000001
aF0.25
aa(lp900
F0.6900000000000001
aF0.26
aa(lp901
F0.6900000000000001
aF0.27
aa(lp902
F0.6900000000000001
aF0.28
aa(lp903
F0.6900000000000001
aF0.29000000000000004
aa(lp904
F0.6900000000000001
aF0.3
aa(lp905
F0.6900000000000001
aF0.31
aa(lp906
F0.6900000000000001
aF0.32
aa(lp907
F0.6900000000000001
aF0.33
aa(lp908
F0.6900000000000001
aF0.34
aa(lp909
F0.6900000000000001
aF0.35000000000000003
aa(lp910
F0.6900000000000001
aF0.36000000000000004
aa(lp911
F0.6900000000000001
aF0.37000000000000005
aa(lp912
F0.6900000000000001
aF0.38000000000000006
aa(lp913
F0.7000000000000001
aF-0.18
aa(lp914
F0.7000000000000001
aF-0.16999999999999998
aa(lp915
F0.7000000000000001
aF-0.16
aa(lp916
F0.7000000000000001
aF-0.15
aa(lp917
F0.7000000000000001
aF-0.13999999999999999
aa(lp918
F0.7000000000000001
aF-0.13
aa(lp919
F0.7000000000000001
aF-0.12
aa(lp920
F0.7000000000000001
aF-0.10999999999999999
aa(lp921
F0.7000000000000001
aF-0.09999999999999999
aa(lp922
F0.7000000000000001
aF-0.09
aa(lp923
F0.7000000000000001
aF-0.07999999999999999
aa(lp924
F0.7000000000000001
aF-0.06999999999999999
aa(lp925
F0.7000000000000001
aF-0.06
aa(lp926
F0.7000000000000001
aF-0.04999999999999999
aa(lp927
F0.7000000000000001
aF-0.03999999999999998
aa(lp928
F0.7000000000000001
aF-0.03
aa(lp929
F0.7000000000000001
aF-0.01999999999999999
aa(lp930
F0.7000000000000001
aF-0.009999999999999981
aa(lp931
F0.7000000000000001
aF0.0
aa(lp932
F0.7000000000000001
aF0.010000000000000009
aa(lp933
F0.7000000000000001
aF0.020000000000000018
aa(lp934
F0.7000000000000001
aF0.03
aa(lp935
F0.7000000000000001
aF0.04000000000000001
aa(lp936
F0.7000000000000001
aF0.05000000000000002
aa(lp937
F0.7000000000000001
aF0.06
aa(lp938
F0.7000000000000001
aF0.07
aa(lp939
F0.7000000000000001
aF0.08000000000000002
aa(lp940
F0.7000000000000001
aF0.09000000000000002
aa(lp941
F0.7000000000000001
aF0.10000000000000003
aa(lp942
F0.7000000000000001
aF0.10999999999999999
aa(lp943
F0.7000000000000001
aF0.12
aa(lp944
F0.7000000000000001
aF0.13
aa(lp945
F0.7000000000000001
aF0.14
aa(lp946
F0.7000000000000001
aF0.15000000000000002
aa(lp947
F0.7000000000000001
aF0.16000000000000003
aa(lp948
F0.7000000000000001
aF0.17000000000000004
aa(lp949
F0.7000000000000001
aF0.18
aa(lp950
F0.7000000000000001
aF0.19
aa(lp951
F0.7000000000000001
aF0.2
aa(lp952
F0.7000000000000001
aF0.21000000000000002
aa(lp953
F0.7000000000000001
aF0.22000000000000003
aa(lp954
F0.7000000000000001
aF0.23000000000000004
aa(lp955
F0.7000000000000001
aF0.24
aa(lp956
F0.7000000000000001
aF0.25
aa(lp957
F0.7000000000000001
aF0.26
aa(lp958
F0.7000000000000001
aF0.27
aa(lp959
F0.7000000000000001
aF0.28
aa(lp960
F0.7000000000000001
aF0.29000000000000004
aa(lp961
F0.7000000000000001
aF0.3
aa(lp962
F0.7000000000000001
aF0.31
aa(lp963
F0.7000000000000001
aF0.32
aa(lp964
F0.7000000000000001
aF0.33
aa(lp965
F0.7000000000000001
aF0.34
aa(lp966
F0.7000000000000001
aF0.35000000000000003
aa(lp967
F0.7000000000000001
aF0.36000000000000004
aa(lp968
F0.7000000000000001
aF0.37000000000000005
aa(lp969
F0.7000000000000001
aF0.38000000000000006
aa(lp970
F0.7100000000000001
aF-0.18
aa(lp971
F0.7100000000000001
aF-0.16999999999999998
aa(lp972
F0.7100000000000001
aF-0.16
aa(lp973
F0.7100000000000001
aF-0.15
aa(lp974
F0.7100000000000001
aF-0.13999999999999999
aa(lp975
F0.7100000000000001
aF-0.13
aa(lp976
F0.7100000000000001
aF-0.12
aa(lp977
F0.7100000000000001
aF-0.10999999999999999
aa(lp978
F0.7100000000000001
aF-0.09999999999999999
aa(lp979
F0.7100000000000001
aF-0.09
aa(lp980
F0.7100000000000001
aF-0.07999999999999999
aa(lp981
F0.7100000000000001
aF-0.06999999999999999
aa(lp982
F0.7100000000000001
aF-0.06
aa(lp983
F0.7100000000000001
aF-0.04999999999999999
aa(lp984
F0.7100000000000001
aF-0.03999999999999998
aa(lp985
F0.7100000000000001
aF-0.03
aa(lp986
F0.7100000000000001
aF-0.01999999999999999
aa(lp987
F0.7100000000000001
aF-0.009999999999999981
aa(lp988
F0.7100000000000001
aF0.0
aa(lp989
F0.7100000000000001
aF0.010000000000000009
aa(lp990
F0.7100000000000001
aF0.020000000000000018
aa(lp991
F0.7100000000000001
aF0.03
aa(lp992
F0.7100000000000001
aF0.04000000000000001
aa(lp993
F0.7100000000000001
aF0.05000000000000002
aa(lp994
F0.7100000000000001
aF0.06
aa(lp995
F0.7100000000000001
aF0.07
aa(lp996
F0.7100000000000001
aF0.08000000000000002
aa(lp997
F0.7100000000000001
aF0.09000000000000002
aa(lp998
F0.7100000000000001
aF0.10000000000000003
aa(lp999
F0.7100000000000001
aF0.10999999999999999
aa(lp1000
F0.7100000000000001
aF0.12
aa(lp1001
F0.7100000000000001
aF0.13
aa(lp1002
F0.7100000000000001
aF0.14
aa(lp1003
F0.7100000000000001
aF0.15000000000000002
aa(lp1004
F0.7100000000000001
aF0.16000000000000003
aa(lp1005
F0.7100000000000001
aF0.17000000000000004
aa(lp1006
F0.7100000000000001
aF0.18
aa(lp1007
F0.7100000000000001
aF0.19
aa(lp1008
F0.7100000000000001
aF0.2
aa(lp1009
F0.7100000000000001
aF0.21000000000000002
aa(lp1010
F0.7100000000000001
aF0.22000000000000003
aa(lp1011
F0.7100000000000001
aF0.23000000000000004
aa(lp1012
F0.7100000000000001
aF0.24
aa(lp1013
F0.7100000000000001
aF0.25
aa(lp1014
F0.7100000000000001
aF0.26
aa(lp1015
F0.7100000000000001
aF0.27
aa(lp1016
F0.7100000000000001
aF0.28
aa(lp1017
F0.7100000000000001
aF0.29000000000000004
aa(lp1018
F0.7100000000000001
aF0.3
aa(lp1019
F0.7100000000000001
aF0.31
aa(lp1020
F0.7100000000000001
aF0.32
aa(lp1021
F0.7100000000000001
aF0.33
aa(lp1022
F0.7100000000000001
aF0.34
aa(lp1023
F0.7100000000000001
aF0.35000000000000003
aa(lp1024
F0.7100000000000001
aF0.36000000000000004
aa(lp1025
F0.7100000000000001
aF0.37000000000000005
aa(lp1026
F0.7100000000000001
aF0.38000000000000006
aa(lp1027
F0.72
aF-0.18
aa(lp1028
F0.72
aF-0.16999999999999998
aa(lp1029
F0.72
aF-0.16
aa(lp1030
F0.72
aF-0.15
aa(lp1031
F0.72
aF-0.13999999999999999
aa(lp1032
F0.72
aF-0.13
aa(lp1033
F0.72
aF-0.12
aa(lp1034
F0.72
aF-0.10999999999999999
aa(lp1035
F0.72
aF-0.09999999999999999
aa(lp1036
F0.72
aF-0.09
aa(lp1037
F0.72
aF-0.07999999999999999
aa(lp1038
F0.72
aF-0.06999999999999999
aa(lp1039
F0.72
aF-0.06
aa(lp1040
F0.72
aF-0.04999999999999999
aa(lp1041
F0.72
aF-0.03999999999999998
aa(lp1042
F0.72
aF-0.03
aa(lp1043
F0.72
aF-0.01999999999999999
aa(lp1044
F0.72
aF-0.009999999999999981
aa(lp1045
F0.72
aF0.0
aa(lp1046
F0.72
aF0.010000000000000009
aa(lp1047
F0.72
aF0.020000000000000018
aa(lp1048
F0.72
aF0.03
aa(lp1049
F0.72
aF0.04000000000000001
aa(lp1050
F0.72
aF0.05000000000000002
aa(lp1051
F0.72
aF0.06
aa(lp1052
F0.72
aF0.07
aa(lp1053
F0.72
aF0.08000000000000002
aa(lp1054
F0.72
aF0.09000000000000002
aa(lp1055
F0.72
aF0.10000000000000003
aa(lp1056
F0.72
aF0.10999999999999999
aa(lp1057
F0.72
aF0.12
aa(lp1058
F0.72
aF0.13
aa(lp1059
F0.72
aF0.14
aa(lp1060
F0.72
aF0.15000000000000002
aa(lp1061
F0.72
aF0.16000000000000003
aa(lp1062
F0.72
aF0.17000000000000004
aa(lp1063
F0.72
aF0.18
aa(lp1064
F0.72
aF0.19
aa(lp1065
F0.72
aF0.2
aa(lp1066
F0.72
aF0.21000000000000002
aa(lp1067
F0.72
aF0.22000000000000003
aa(lp1068
F0.72
aF0.23000000000000004
aa(lp1069
F0.72
aF0.24
aa(lp1070
F0.72
aF0.25
aa(lp1071
F0.72
aF0.26
aa(lp1072
F0.72
aF0.27
aa(lp1073
F0.72
aF0.28
aa(lp1074
F0.72
aF0.29000000000000004
aa(lp1075
F0.72
aF0.3
aa(lp1076
F0.72
aF0.31
aa(lp1077
F0.72
aF0.32
aa(lp1078
F0.72
aF0.33
aa(lp1079
F0.72
aF0.34
aa(lp1080
F0.72
aF0.35000000000000003
aa(lp1081
F0.72
aF0.36000000000000004
aa(lp1082
F0.72
aF0.37000000000000005
aa(lp1083
F0.72
aF0.38000000000000006
aa(lp1084
F0.73
aF-0.18
aa(lp1085
F0.73
aF-0.16999999999999998
aa(lp1086
F0.73
aF-0.16
aa(lp1087
F0.73
aF-0.15
aa(lp1088
F0.73
aF-0.13999999999999999
aa(lp1089
F0.73
aF-0.13
aa(lp1090
F0.73
aF-0.12
aa(lp1091
F0.73
aF-0.10999999999999999
aa(lp1092
F0.73
aF-0.09999999999999999
aa(lp1093
F0.73
aF-0.09
aa(lp1094
F0.73
aF-0.07999999999999999
aa(lp1095
F0.73
aF-0.06999999999999999
aa(lp1096
F0.73
aF-0.06
aa(lp1097
F0.73
aF-0.04999999999999999
aa(lp1098
F0.73
aF-0.03999999999999998
aa(lp1099
F0.73
aF-0.03
aa(lp1100
F0.73
aF-0.01999999999999999
aa(lp1101
F0.73
aF-0.009999999999999981
aa(lp1102
F0.73
aF0.0
aa(lp1103
F0.73
aF0.010000000000000009
aa(lp1104
F0.73
aF0.020000000000000018
aa(lp1105
F0.73
aF0.03
aa(lp1106
F0.73
aF0.04000000000000001
aa(lp1107
F0.73
aF0.05000000000000002
aa(lp1108
F0.73
aF0.06
aa(lp1109
F0.73
aF0.07
aa(lp1110
F0.73
aF0.08000000000000002
aa(lp1111
F0.73
aF0.09000000000000002
aa(lp1112
F0.73
aF0.10000000000000003
aa(lp1113
F0.73
aF0.10999999999999999
aa(lp1114
F0.73
aF0.12
aa(lp1115
F0.73
aF0.13
aa(lp1116
F0.73
aF0.14
aa(lp1117
F0.73
aF0.15000000000000002
aa(lp1118
F0.73
aF0.16000000000000003
aa(lp1119
F0.73
aF0.17000000000000004
aa(lp1120
F0.73
aF0.18
aa(lp1121
F0.73
aF0.19
aa(lp1122
F0.73
aF0.2
aa(lp1123
F0.73
aF0.21000000000000002
aa(lp1124
F0.73
aF0.22000000000000003
aa(lp1125
F0.73
aF0.23000000000000004
aa(lp1126
F0.73
aF0.24
aa(lp1127
F0.73
aF0.25
aa(lp1128
F0.73
aF0.26
aa(lp1129
F0.73
aF0.27
aa(lp1130
F0.73
aF0.28
aa(lp1131
F0.73
aF0.29000000000000004
aa(lp1132
F0.73
aF0.3
aa(lp1133
F0.73
aF0.31
aa(lp1134
F0.73
aF0.32
aa(lp1135
F0.73
aF0.33
aa(lp1136
F0.73
aF0.34
aa(lp1137
F0.73
aF0.35000000000000003
aa(lp1138
F0.73
aF0.36000000000000004
aa(lp1139
F0.73
aF0.37000000000000005
aa(lp1140
F0.73
aF0.38000000000000006
aa(lp1141
F0.74
aF-0.18
aa(lp1142
F0.74
aF-0.16999999999999998
aa(lp1143
F0.74
aF-0.16
aa(lp1144
F0.74
aF-0.15
aa(lp1145
F0.74
aF-0.13999999999999999
aa(lp1146
F0.74
aF-0.13
aa(lp1147
F0.74
aF-0.12
aa(lp1148
F0.74
aF-0.10999999999999999
aa(lp1149
F0.74
aF-0.09999999999999999
aa(lp1150
F0.74
aF-0.09
aa(lp1151
F0.74
aF-0.07999999999999999
aa(lp1152
F0.74
aF-0.06999999999999999
aa(lp1153
F0.74
aF-0.06
aa(lp1154
F0.74
aF-0.04999999999999999
aa(lp1155
F0.74
aF-0.03999999999999998
aa(lp1156
F0.74
aF-0.03
aa(lp1157
F0.74
aF-0.01999999999999999
aa(lp1158
F0.74
aF-0.009999999999999981
aa(lp1159
F0.74
aF0.0
aa(lp1160
F0.74
aF0.010000000000000009
aa(lp1161
F0.74
aF0.020000000000000018
aa(lp1162
F0.74
aF0.03
aa(lp1163
F0.74
aF0.04000000000000001
aa(lp1164
F0.74
aF0.05000000000000002
aa(lp1165
F0.74
aF0.06
aa(lp1166
F0.74
aF0.07
aa(lp1167
F0.74
aF0.08000000000000002
aa(lp1168
F0.74
aF0.09000000000000002
aa(lp1169
F0.74
aF0.10000000000000003
aa(lp1170
F0.74
aF0.10999999999999999
aa(lp1171
F0.74
aF0.12
aa(lp1172
F0.74
aF0.13
aa(lp1173
F0.74
aF0.14
aa(lp1174
F0.74
aF0.15000000000000002
aa(lp1175
F0.74
aF0.16000000000000003
aa(lp1176
F0.74
aF0.17000000000000004
aa(lp1177
F0.74
aF0.18
aa(lp1178
F0.74
aF0.19
aa(lp1179
F0.74
aF0.2
aa(lp1180
F0.74
aF0.21000000000000002
aa(lp1181
F0.74
aF0.22000000000000003
aa(lp1182
F0.74
aF0.23000000000000004
aa(lp1183
F0.74
aF0.24
aa(lp1184
F0.74
aF0.25
aa(lp1185
F0.74
aF0.26
aa(lp1186
F0.74
aF0.27
aa(lp1187
F0.74
aF0.28
aa(lp1188
F0.74
aF0.29000000000000004
aa(lp1189
F0.74
aF0.3
aa(lp1190
F0.74
aF0.31
aa(lp1191
F0.74
aF0.32
aa(lp1192
F0.74
aF0.33
aa(lp1193
F0.74
aF0.34
aa(lp1194
F0.74
aF0.35000000000000003
aa(lp1195
F0.74
aF0.36000000000000004
aa(lp1196
F0.74
aF0.37000000000000005
aa(lp1197
F0.74
aF0.38000000000000006
aa(lp1198
F0.75
aF-0.18
aa(lp1199
F0.75
aF-0.16999999999999998
aa(lp1200
F0.75
aF-0.16
aa(lp1201
F0.75
aF-0.15
aa(lp1202
F0.75
aF-0.13999999999999999
aa(lp1203
F0.75
aF-0.13
aa(lp1204
F0.75
aF-0.12
aa(lp1205
F0.75
aF-0.10999999999999999
aa(lp1206
F0.75
aF-0.09999999999999999
aa(lp1207
F0.75
aF-0.09
aa(lp1208
F0.75
aF-0.07999999999999999
aa(lp1209
F0.75
aF-0.06999999999999999
aa(lp1210
F0.75
aF-0.06
aa(lp1211
F0.75
aF-0.04999999999999999
aa(lp1212
F0.75
aF-0.03999999999999998
aa(lp1213
F0.75
aF-0.03
aa(lp1214
F0.75
aF-0.01999999999999999
aa(lp1215
F0.75
aF-0.009999999999999981
aa(lp1216
F0.75
aF0.0
aa(lp1217
F0.75
aF0.010000000000000009
aa(lp1218
F0.75
aF0.020000000000000018
aa(lp1219
F0.75
aF0.03
aa(lp1220
F0.75
aF0.04000000000000001
aa(lp1221
F0.75
aF0.05000000000000002
aa(lp1222
F0.75
aF0.06
aa(lp1223
F0.75
aF0.07
aa(lp1224
F0.75
aF0.08000000000000002
aa(lp1225
F0.75
aF0.09000000000000002
aa(lp1226
F0.75
aF0.10000000000000003
aa(lp1227
F0.75
aF0.10999999999999999
aa(lp1228
F0.75
aF0.12
aa(lp1229
F0.75
aF0.13
aa(lp1230
F0.75
aF0.14
aa(lp1231
F0.75
aF0.15000000000000002
aa(lp1232
F0.75
aF0.16000000000000003
aa(lp1233
F0.75
aF0.17000000000000004
aa(lp1234
F0.75
aF0.18
aa(lp1235
F0.75
aF0.19
aa(lp1236
F0.75
aF0.2
aa(lp1237
F0.75
aF0.21000000000000002
aa(lp1238
F0.75
aF0.22000000000000003
aa(lp1239
F0.75
aF0.23000000000000004
aa(lp1240
F0.75
aF0.24
aa(lp1241
F0.75
aF0.25
aa(lp1242
F0.75
aF0.26
aa(lp1243
F0.75
aF0.27
aa(lp1244
F0.75
aF0.28
aa(lp1245
F0.75
aF0.29000000000000004
aa(lp1246
F0.75
aF0.3
aa(lp1247
F0.75
aF0.31
aa(lp1248
F0.75
aF0.32
aa(lp1249
F0.75
aF0.33
aa(lp1250
F0.75
aF0.34
aa(lp1251
F0.75
aF0.35000000000000003
aa(lp1252
F0.75
aF0.36000000000000004
aa(lp1253
F0.75
aF0.37000000000000005
aa(lp1254
F0.75
aF0.38000000000000006
aa(lp1255
F0.76
aF-0.18
aa(lp1256
F0.76
aF-0.16999999999999998
aa(lp1257
F0.76
aF-0.16
aa(lp1258
F0.76
aF-0.15
aa(lp1259
F0.76
aF-0.13999999999999999
aa(lp1260
F0.76
aF-0.13
aa(lp1261
F0.76
aF-0.12
aa(lp1262
F0.76
aF-0.10999999999999999
aa(lp1263
F0.76
aF-0.09999999999999999
aa(lp1264
F0.76
aF-0.09
aa(lp1265
F0.76
aF-0.07999999999999999
aa(lp1266
F0.76
aF-0.06999999999999999
aa(lp1267
F0.76
aF-0.06
aa(lp1268
F0.76
aF-0.04999999999999999
aa(lp1269
F0.76
aF-0.03999999999999998
aa(lp1270
F0.76
aF-0.03
aa(lp1271
F0.76
aF-0.01999999999999999
aa(lp1272
F0.76
aF-0.009999999999999981
aa(lp1273
F0.76
aF0.0
aa(lp1274
F0.76
aF0.010000000000000009
aa(lp1275
F0.76
aF0.020000000000000018
aa(lp1276
F0.76
aF0.03
aa(lp1277
F0.76
aF0.04000000000000001
aa(lp1278
F0.76
aF0.05000000000000002
aa(lp1279
F0.76
aF0.06
aa(lp1280
F0.76
aF0.07
aa(lp1281
F0.76
aF0.08000000000000002
aa(lp1282
F0.76
aF0.09000000000000002
aa(lp1283
F0.76
aF0.10000000000000003
aa(lp1284
F0.76
aF0.10999999999999999
aa(lp1285
F0.76
aF0.12
aa(lp1286
F0.76
aF0.13
aa(lp1287
F0.76
aF0.14
aa(lp1288
F0.76
aF0.15000000000000002
aa(lp1289
F0.76
aF0.16000000000000003
aa(lp1290
F0.76
aF0.17000000000000004
aa(lp1291
F0.76
aF0.18
aa(lp1292
F0.76
aF0.19
aa(lp1293
F0.76
aF0.2
aa(lp1294
F0.76
aF0.21000000000000002
aa(lp1295
F0.76
aF0.22000000000000003
aa(lp1296
F0.76
aF0.23000000000000004
aa(lp1297
F0.76
aF0.24
aa(lp1298
F0.76
aF0.25
aa(lp1299
F0.76
aF0.26
aa(lp1300
F0.76
aF0.27
aa(lp1301
F0.76
aF0.28
aa(lp1302
F0.76
aF0.29000000000000004
aa(lp1303
F0.76
aF0.3
aa(lp1304
F0.76
aF0.31
aa(lp1305
F0.76
aF0.32
aa(lp1306
F0.76
aF0.33
aa(lp1307
F0.76
aF0.34
aa(lp1308
F0.76
aF0.35000000000000003
aa(lp1309
F0.76
aF0.36000000000000004
aa(lp1310
F0.76
aF0.37000000000000005
aa(lp1311
F0.76
aF0.38000000000000006
aa(lp1312
F0.77
aF-0.18
aa(lp1313
F0.77
aF-0.16999999999999998
aa(lp1314
F0.77
aF-0.16
aa(lp1315
F0.77
aF-0.15
aa(lp1316
F0.77
aF-0.13999999999999999
aa(lp1317
F0.77
aF-0.13
aa(lp1318
F0.77
aF-0.12
aa(lp1319
F0.77
aF-0.10999999999999999
aa(lp1320
F0.77
aF-0.09999999999999999
aa(lp1321
F0.77
aF-0.09
aa(lp1322
F0.77
aF-0.07999999999999999
aa(lp1323
F0.77
aF-0.06999999999999999
aa(lp1324
F0.77
aF-0.06
aa(lp1325
F0.77
aF-0.04999999999999999
aa(lp1326
F0.77
aF-0.03999999999999998
aa(lp1327
F0.77
aF-0.03
aa(lp1328
F0.77
aF-0.01999999999999999
aa(lp1329
F0.77
aF-0.009999999999999981
aa(lp1330
F0.77
aF0.0
aa(lp1331
F0.77
aF0.010000000000000009
aa(lp1332
F0.77
aF0.020000000000000018
aa(lp1333
F0.77
aF0.03
aa(lp1334
F0.77
aF0.04000000000000001
aa(lp1335
F0.77
aF0.05000000000000002
aa(lp1336
F0.77
aF0.06
aa(lp1337
F0.77
aF0.07
aa(lp1338
F0.77
aF0.08000000000000002
aa(lp1339
F0.77
aF0.09000000000000002
aa(lp1340
F0.77
aF0.10000000000000003
aa(lp1341
F0.77
aF0.10999999999999999
aa(lp1342
F0.77
aF0.12
aa(lp1343
F0.77
aF0.13
aa(lp1344
F0.77
aF0.14
aa(lp1345
F0.77
aF0.15000000000000002
aa(lp1346
F0.77
aF0.16000000000000003
aa(lp1347
F0.77
aF0.17000000000000004
aa(lp1348
F0.77
aF0.18
aa(lp1349
F0.77
aF0.19
aa(lp1350
F0.77
aF0.2
aa(lp1351
F0.77
aF0.21000000000000002
aa(lp1352
F0.77
aF0.22000000000000003
aa(lp1353
F0.77
aF0.23000000000000004
aa(lp1354
F0.77
aF0.24
aa(lp1355
F0.77
aF0.25
aa(lp1356
F0.77
aF0.26
aa(lp1357
F0.77
aF0.27
aa(lp1358
F0.77
aF0.28
aa(lp1359
F0.77
aF0.29000000000000004
aa(lp1360
F0.77
aF0.3
aa(lp1361
F0.77
aF0.31
aa(lp1362
F0.77
aF0.32
aa(lp1363
F0.77
aF0.33
aa(lp1364
F0.77
aF0.34
aa(lp1365
F0.77
aF0.35000000000000003
aa(lp1366
F0.77
aF0.36000000000000004
aa(lp1367
F0.77
aF0.37000000000000005
aa(lp1368
F0.77
aF0.38000000000000006
aa(lp1369
F0.78
aF-0.18
aa(lp1370
F0.78
aF-0.16999999999999998
aa(lp1371
F0.78
aF-0.16
aa(lp1372
F0.78
aF-0.15
aa(lp1373
F0.78
aF-0.13999999999999999
aa(lp1374
F0.78
aF-0.13
aa(lp1375
F0.78
aF-0.12
aa(lp1376
F0.78
aF-0.10999999999999999
aa(lp1377
F0.78
aF-0.09999999999999999
aa(lp1378
F0.78
aF-0.09
aa(lp1379
F0.78
aF-0.07999999999999999
aa(lp1380
F0.78
aF-0.06999999999999999
aa(lp1381
F0.78
aF-0.06
aa(lp1382
F0.78
aF-0.04999999999999999
aa(lp1383
F0.78
aF-0.03999999999999998
aa(lp1384
F0.78
aF-0.03
aa(lp1385
F0.78
aF-0.01999999999999999
aa(lp1386
F0.78
aF-0.009999999999999981
aa(lp1387
F0.78
aF0.0
aa(lp1388
F0.78
aF0.010000000000000009
aa(lp1389
F0.78
aF0.020000000000000018
aa(lp1390
F0.78
aF0.03
aa(lp1391
F0.78
aF0.04000000000000001
aa(lp1392
F0.78
aF0.05000000000000002
aa(lp1393
F0.78
aF0.06
aa(lp1394
F0.78
aF0.07
aa(lp1395
F0.78
aF0.08000000000000002
aa(lp1396
F0.78
aF0.09000000000000002
aa(lp1397
F0.78
aF0.10000000000000003
aa(lp1398
F0.78
aF0.10999999999999999
aa(lp1399
F0.78
aF0.12
aa(lp1400
F0.78
aF0.13
aa(lp1401
F0.78
aF0.14
aa(lp1402
F0.78
aF0.15000000000000002
aa(lp1403
F0.78
aF0.16000000000000003
aa(lp1404
F0.78
aF0.17000000000000004
aa(lp1405
F0.78
aF0.18
aa(lp1406
F0.78
aF0.19
aa(lp1407
F0.78
aF0.2
aa(lp1408
F0.78
aF0.21000000000000002
aa(lp1409
F0.78
aF0.22000000000000003
aa(lp1410
F0.78
aF0.23000000000000004
aa(lp1411
F0.78
aF0.24
aa(lp1412
F0.78
aF0.25
aa(lp1413
F0.78
aF0.26
aa(lp1414
F0.78
aF0.27
aa(lp1415
F0.78
aF0.28
aa(lp1416
F0.78
aF0.29000000000000004
aa(lp1417
F0.78
aF0.3
aa(lp1418
F0.78
aF0.31
aa(lp1419
F0.78
aF0.32
aa(lp1420
F0.78
aF0.33
aa(lp1421
F0.78
aF0.34
aa(lp1422
F0.78
aF0.35000000000000003
aa(lp1423
F0.78
aF0.36000000000000004
aa(lp1424
F0.78
aF0.37000000000000005
aa(lp1425
F0.78
aF0.38000000000000006
aa(lp1426
F0.79
aF-0.18
aa(lp1427
F0.79
aF-0.16999999999999998
aa(lp1428
F0.79
aF-0.16
aa(lp1429
F0.79
aF-0.15
aa(lp1430
F0.79
aF-0.13999999999999999
aa(lp1431
F0.79
aF-0.13
aa(lp1432
F0.79
aF-0.12
aa(lp1433
F0.79
aF-0.10999999999999999
aa(lp1434
F0.79
aF-0.09999999999999999
aa(lp1435
F0.79
aF-0.09
aa(lp1436
F0.79
aF-0.07999999999999999
aa(lp1437
F0.79
aF-0.06999999999999999
aa(lp1438
F0.79
aF-0.06
aa(lp1439
F0.79
aF-0.04999999999999999
aa(lp1440
F0.79
aF-0.03999999999999998
aa(lp1441
F0.79
aF-0.03
aa(lp1442
F0.79
aF-0.01999999999999999
aa(lp1443
F0.79
aF-0.009999999999999981
aa(lp1444
F0.79
aF0.0
aa(lp1445
F0.79
aF0.010000000000000009
aa(lp1446
F0.79
aF0.020000000000000018
aa(lp1447
F0.79
aF0.03
aa(lp1448
F0.79
aF0.04000000000000001
aa(lp1449
F0.79
aF0.05000000000000002
aa(lp1450
F0.79
aF0.06
aa(lp1451
F0.79
aF0.07
aa(lp1452
F0.79
aF0.08000000000000002
aa(lp1453
F0.79
aF0.09000000000000002
aa(lp1454
F0.79
aF0.10000000000000003
aa(lp1455
F0.79
aF0.10999999999999999
aa(lp1456
F0.79
aF0.12
aa(lp1457
F0.79
aF0.13
aa(lp1458
F0.79
aF0.14
aa(lp1459
F0.79
aF0.15000000000000002
aa(lp1460
F0.79
aF0.16000000000000003
aa(lp1461
F0.79
aF0.17000000000000004
aa(lp1462
F0.79
aF0.18
aa(lp1463
F0.79
aF0.19
aa(lp1464
F0.79
aF0.2
aa(lp1465
F0.79
aF0.21000000000000002
aa(lp1466
F0.79
aF0.22000000000000003
aa(lp1467
F0.79
aF0.23000000000000004
aa(lp1468
F0.79
aF0.24
aa(lp1469
F0.79
aF0.25
aa(lp1470
F0.79
aF0.26
aa(lp1471
F0.79
aF0.27
aa(lp1472
F0.79
aF0.28
aa(lp1473
F0.79
aF0.29000000000000004
aa(lp1474
F0.79
aF0.3
aa(lp1475
F0.79
aF0.31
aa(lp1476
F0.79
aF0.32
aa(lp1477
F0.79
aF0.33
aa(lp1478
F0.79
aF0.34
aa(lp1479
F0.79
aF0.35000000000000003
aa(lp1480
F0.79
aF0.36000000000000004
aa(lp1481
F0.79
aF0.37000000000000005
aa(lp1482
F0.79
aF0.38000000000000006
aa(lp1483
F0.8
aF-0.18
aa(lp1484
F0.8
aF-0.16999999999999998
aa(lp1485
F0.8
aF-0.16
aa(lp1486
F0.8
aF-0.15
aa(lp1487
F0.8
aF-0.13999999999999999
aa(lp1488
F0.8
aF-0.13
aa(lp1489
F0.8
aF-0.12
aa(lp1490
F0.8
aF-0.10999999999999999
aa(lp1491
F0.8
aF-0.09999999999999999
aa(lp1492
F0.8
aF-0.09
aa(lp1493
F0.8
aF-0.07999999999999999
aa(lp1494
F0.8
aF-0.06999999999999999
aa(lp1495
F0.8
aF-0.06
aa(lp1496
F0.8
aF-0.04999999999999999
aa(lp1497
F0.8
aF-0.03999999999999998
aa(lp1498
F0.8
aF-0.03
aa(lp1499
F0.8
aF-0.01999999999999999
aa(lp1500
F0.8
aF-0.009999999999999981
aa(lp1501
F0.8
aF0.0
aa(lp1502
F0.8
aF0.010000000000000009
aa(lp1503
F0.8
aF0.020000000000000018
aa(lp1504
F0.8
aF0.03
aa(lp1505
F0.8
aF0.04000000000000001
aa(lp1506
F0.8
aF0.05000000000000002
aa(lp1507
F0.8
aF0.06
aa(lp1508
F0.8
aF0.07
aa(lp1509
F0.8
aF0.08000000000000002
aa(lp1510
F0.8
aF0.09000000000000002
aa(lp1511
F0.8
aF0.10000000000000003
aa(lp1512
F0.8
aF0.10999999999999999
aa(lp1513
F0.8
aF0.12
aa(lp1514
F0.8
aF0.13
aa(lp1515
F0.8
aF0.14
aa(lp1516
F0.8
aF0.15000000000000002
aa(lp1517
F0.8
aF0.16000000000000003
aa(lp1518
F0.8
aF0.17000000000000004
aa(lp1519
F0.8
aF0.18
aa(lp1520
F0.8
aF0.19
aa(lp1521
F0.8
aF0.2
aa(lp1522
F0.8
aF0.21000000000000002
aa(lp1523
F0.8
aF0.22000000000000003
aa(lp1524
F0.8
aF0.23000000000000004
aa(lp1525
F0.8
aF0.24
aa(lp1526
F0.8
aF0.25
aa(lp1527
F0.8
aF0.26
aa(lp1528
F0.8
aF0.27
aa(lp1529
F0.8
aF0.28
aa(lp1530
F0.8
aF0.29000000000000004
aa(lp1531
F0.8
aF0.3
aa(lp1532
F0.8
aF0.31
aa(lp1533
F0.8
aF0.32
aa(lp1534
F0.8
aF0.33
aa(lp1535
F0.8
aF0.34
aa(lp1536
F0.8
aF0.35000000000000003
aa(lp1537
F0.8
aF0.36000000000000004
aa(lp1538
F0.8
aF0.37000000000000005
aa(lp1539
F0.8
aF0.38000000000000006
aa(lp1540
F0.81
aF-0.18
aa(lp1541
F0.81
aF-0.16999999999999998
aa(lp1542
F0.81
aF-0.16
aa(lp1543
F0.81
aF-0.15
aa(lp1544
F0.81
aF-0.13999999999999999
aa(lp1545
F0.81
aF-0.13
aa(lp1546
F0.81
aF-0.12
aa(lp1547
F0.81
aF-0.10999999999999999
aa(lp1548
F0.81
aF-0.09999999999999999
aa(lp1549
F0.81
aF-0.09
aa(lp1550
F0.81
aF-0.07999999999999999
aa(lp1551
F0.81
aF-0.06999999999999999
aa(lp1552
F0.81
aF-0.06
aa(lp1553
F0.81
aF-0.04999999999999999
aa(lp1554
F0.81
aF-0.03999999999999998
aa(lp1555
F0.81
aF-0.03
aa(lp1556
F0.81
aF-0.01999999999999999
aa(lp1557
F0.81
aF-0.009999999999999981
aa(lp1558
F0.81
aF0.0
aa(lp1559
F0.81
aF0.010000000000000009
aa(lp1560
F0.81
aF0.020000000000000018
aa(lp1561
F0.81
aF0.03
aa(lp1562
F0.81
aF0.04000000000000001
aa(lp1563
F0.81
aF0.05000000000000002
aa(lp1564
F0.81
aF0.06
aa(lp1565
F0.81
aF0.07
aa(lp1566
F0.81
aF0.08000000000000002
aa(lp1567
F0.81
aF0.09000000000000002
aa(lp1568
F0.81
aF0.10000000000000003
aa(lp1569
F0.81
aF0.10999999999999999
aa(lp1570
F0.81
aF0.12
aa(lp1571
F0.81
aF0.13
aa(lp1572
F0.81
aF0.14
aa(lp1573
F0.81
aF0.15000000000000002
aa(lp1574
F0.81
aF0.16000000000000003
aa(lp1575
F0.81
aF0.17000000000000004
aa(lp1576
F0.81
aF0.18
aa(lp1577
F0.81
aF0.19
aa(lp1578
F0.81
aF0.2
aa(lp1579
F0.81
aF0.21000000000000002
aa(lp1580
F0.81
aF0.22000000000000003
aa(lp1581
F0.81
aF0.23000000000000004
aa(lp1582
F0.81
aF0.24
aa(lp1583
F0.81
aF0.25
aa(lp1584
F0.81
aF0.26
aa(lp1585
F0.81
aF0.27
aa(lp1586
F0.81
aF0.28
aa(lp1587
F0.81
aF0.29000000000000004
aa(lp1588
F0.81
aF0.3
aa(lp1589
F0.81
aF0.31
aa(lp1590
F0.81
aF0.32
aa(lp1591
F0.81
aF0.33
aa(lp1592
F0.81
aF0.34
aa(lp1593
F0.81
aF0.35000000000000003
aa(lp1594
F0.81
aF0.36000000000000004
aa(lp1595
F0.81
aF0.37000000000000005
aa(lp1596
F0.81
aF0.38000000000000006
aa(lp1597
F0.8200000000000001
aF-0.18
aa(lp1598
F0.8200000000000001
aF-0.16999999999999998
aa(lp1599
F0.8200000000000001
aF-0.16
aa(lp1600
F0.8200000000000001
aF-0.15
aa(lp1601
F0.8200000000000001
aF-0.13999999999999999
aa(lp1602
F0.8200000000000001
aF-0.13
aa(lp1603
F0.8200000000000001
aF-0.12
aa(lp1604
F0.8200000000000001
aF-0.10999999999999999
aa(lp1605
F0.8200000000000001
aF-0.09999999999999999
aa(lp1606
F0.8200000000000001
aF-0.09
aa(lp1607
F0.8200000000000001
aF-0.07999999999999999
aa(lp1608
F0.8200000000000001
aF-0.06999999999999999
aa(lp1609
F0.8200000000000001
aF-0.06
aa(lp1610
F0.8200000000000001
aF-0.04999999999999999
aa(lp1611
F0.8200000000000001
aF-0.03999999999999998
aa(lp1612
F0.8200000000000001
aF-0.03
aa(lp1613
F0.8200000000000001
aF-0.01999999999999999
aa(lp1614
F0.8200000000000001
aF-0.009999999999999981
aa(lp1615
F0.8200000000000001
aF0.0
aa(lp1616
F0.8200000000000001
aF0.010000000000000009
aa(lp1617
F0.8200000000000001
aF0.020000000000000018
aa(lp1618
F0.8200000000000001
aF0.03
aa(lp1619
F0.8200000000000001
aF0.04000000000000001
aa(lp1620
F0.8200000000000001
aF0.05000000000000002
aa(lp1621
F0.8200000000000001
aF0.06
aa(lp1622
F0.8200000000000001
aF0.07
aa(lp1623
F0.8200000000000001
aF0.08000000000000002
aa(lp1624
F0.8200000000000001
aF0.09000000000000002
aa(lp1625
F0.8200000000000001
aF0.10000000000000003
aa(lp1626
F0.8200000000000001
aF0.10999999999999999
aa(lp1627
F0.8200000000000001
aF0.12
aa(lp1628
F0.8200000000000001
aF0.13
aa(lp1629
F0.8200000000000001
aF0.14
aa(lp1630
F0.8200000000000001
aF0.15000000000000002
aa(lp1631
F0.8200000000000001
aF0.16000000000000003
aa(lp1632
F0.8200000000000001
aF0.17000000000000004
aa(lp1633
F0.8200000000000001
aF0.18
aa(lp1634
F0.8200000000000001
aF0.19
aa(lp1635
F0.8200000000000001
aF0.2
aa(lp1636
F0.8200000000000001
aF0.21000000000000002
aa(lp1637
F0.8200000000000001
aF0.22000000000000003
aa(lp1638
F0.8200000000000001
aF0.23000000000000004
aa(lp1639
F0.8200000000000001
aF0.24
aa(lp1640
F0.8200000000000001
aF0.25
aa(lp1641
F0.8200000000000001
aF0.26
aa(lp1642
F0.8200000000000001
aF0.27
aa(lp1643
F0.8200000000000001
aF0.28
aa(lp1644
F0.8200000000000001
aF0.29000000000000004
aa(lp1645
F0.8200000000000001
aF0.3
aa(lp1646
F0.8200000000000001
aF0.31
aa(lp1647
F0.8200000000000001
aF0.32
aa(lp1648
F0.8200000000000001
aF0.33
aa(lp1649
F0.8200000000000001
aF0.34
aa(lp1650
F0.8200000000000001
aF0.35000000000000003
aa(lp1651
F0.8200000000000001
aF0.36000000000000004
aa(lp1652
F0.8200000000000001
aF0.37000000000000005
aa(lp1653
F0.8200000000000001
aF0.38000000000000006
aa(lp1654
F0.8300000000000001
aF-0.18
aa(lp1655
F0.8300000000000001
aF-0.16999999999999998
aa(lp1656
F0.8300000000000001
aF-0.16
aa(lp1657
F0.8300000000000001
aF-0.15
aa(lp1658
F0.8300000000000001
aF-0.13999999999999999
aa(lp1659
F0.8300000000000001
aF-0.13
aa(lp1660
F0.8300000000000001
aF-0.12
aa(lp1661
F0.8300000000000001
aF-0.10999999999999999
aa(lp1662
F0.8300000000000001
aF-0.09999999999999999
aa(lp1663
F0.8300000000000001
aF-0.09
aa(lp1664
F0.8300000000000001
aF-0.07999999999999999
aa(lp1665
F0.8300000000000001
aF-0.06999999999999999
aa(lp1666
F0.8300000000000001
aF-0.06
aa(lp1667
F0.8300000000000001
aF-0.04999999999999999
aa(lp1668
F0.8300000000000001
aF-0.03999999999999998
aa(lp1669
F0.8300000000000001
aF-0.03
aa(lp1670
F0.8300000000000001
aF-0.01999999999999999
aa(lp1671
F0.8300000000000001
aF-0.009999999999999981
aa(lp1672
F0.8300000000000001
aF0.0
aa(lp1673
F0.8300000000000001
aF0.010000000000000009
aa(lp1674
F0.8300000000000001
aF0.020000000000000018
aa(lp1675
F0.8300000000000001
aF0.03
aa(lp1676
F0.8300000000000001
aF0.04000000000000001
aa(lp1677
F0.8300000000000001
aF0.05000000000000002
aa(lp1678
F0.8300000000000001
aF0.06
aa(lp1679
F0.8300000000000001
aF0.07
aa(lp1680
F0.8300000000000001
aF0.08000000000000002
aa(lp1681
F0.8300000000000001
aF0.09000000000000002
aa(lp1682
F0.8300000000000001
aF0.10000000000000003
aa(lp1683
F0.8300000000000001
aF0.10999999999999999
aa(lp1684
F0.8300000000000001
aF0.12
aa(lp1685
F0.8300000000000001
aF0.13
aa(lp1686
F0.8300000000000001
aF0.14
aa(lp1687
F0.8300000000000001
aF0.15000000000000002
aa(lp1688
F0.8300000000000001
aF0.16000000000000003
aa(lp1689
F0.8300000000000001
aF0.17000000000000004
aa(lp1690
F0.8300000000000001
aF0.18
aa(lp1691
F0.8300000000000001
aF0.19
aa(lp1692
F0.8300000000000001
aF0.2
aa(lp1693
F0.8300000000000001
aF0.21000000000000002
aa(lp1694
F0.8300000000000001
aF0.22000000000000003
aa(lp1695
F0.8300000000000001
aF0.23000000000000004
aa(lp1696
F0.8300000000000001
aF0.24
aa(lp1697
F0.8300000000000001
aF0.25
aa(lp1698
F0.8300000000000001
aF0.26
aa(lp1699
F0.8300000000000001
aF0.27
aa(lp1700
F0.8300000000000001
aF0.28
aa(lp1701
F0.8300000000000001
aF0.29000000000000004
aa(lp1702
F0.8300000000000001
aF0.3
aa(lp1703
F0.8300000000000001
aF0.31
aa(lp1704
F0.8300000000000001
aF0.32
aa(lp1705
F0.8300000000000001
aF0.33
aa(lp1706
F0.8300000000000001
aF0.34
aa(lp1707
F0.8300000000000001
aF0.35000000000000003
aa(lp1708
F0.8300000000000001
aF0.36000000000000004
aa(lp1709
F0.8300000000000001
aF0.37000000000000005
aa(lp1710
F0.8300000000000001
aF0.38000000000000006
aa(lp1711
F0.8400000000000001
aF-0.18
aa(lp1712
F0.8400000000000001
aF-0.16999999999999998
aa(lp1713
F0.8400000000000001
aF-0.16
aa(lp1714
F0.8400000000000001
aF-0.15
aa(lp1715
F0.8400000000000001
aF-0.13999999999999999
aa(lp1716
F0.8400000000000001
aF-0.13
aa(lp1717
F0.8400000000000001
aF-0.12
aa(lp1718
F0.8400000000000001
aF-0.10999999999999999
aa(lp1719
F0.8400000000000001
aF-0.09999999999999999
aa(lp1720
F0.8400000000000001
aF-0.09
aa(lp1721
F0.8400000000000001
aF-0.07999999999999999
aa(lp1722
F0.8400000000000001
aF-0.06999999999999999
aa(lp1723
F0.8400000000000001
aF-0.06
aa(lp1724
F0.8400000000000001
aF-0.04999999999999999
aa(lp1725
F0.8400000000000001
aF-0.03999999999999998
aa(lp1726
F0.8400000000000001
aF-0.03
aa(lp1727
F0.8400000000000001
aF-0.01999999999999999
aa(lp1728
F0.8400000000000001
aF-0.009999999999999981
aa(lp1729
F0.8400000000000001
aF0.0
aa(lp1730
F0.8400000000000001
aF0.010000000000000009
aa(lp1731
F0.8400000000000001
aF0.020000000000000018
aa(lp1732
F0.8400000000000001
aF0.03
aa(lp1733
F0.8400000000000001
aF0.04000000000000001
aa(lp1734
F0.8400000000000001
aF0.05000000000000002
aa(lp1735
F0.8400000000000001
aF0.06
aa(lp1736
F0.8400000000000001
aF0.07
aa(lp1737
F0.8400000000000001
aF0.08000000000000002
aa(lp1738
F0.8400000000000001
aF0.09000000000000002
aa(lp1739
F0.8400000000000001
aF0.10000000000000003
aa(lp1740
F0.8400000000000001
aF0.10999999999999999
aa(lp1741
F0.8400000000000001
aF0.12
aa(lp1742
F0.8400000000000001
aF0.13
aa(lp1743
F0.8400000000000001
aF0.14
aa(lp1744
F0.8400000000000001
aF0.15000000000000002
aa(lp1745
F0.8400000000000001
aF0.16000000000000003
aa(lp1746
F0.8400000000000001
aF0.17000000000000004
aa(lp1747
F0.8400000000000001
aF0.18
aa(lp1748
F0.8400000000000001
aF0.19
aa(lp1749
F0.8400000000000001
aF0.2
aa(lp1750
F0.8400000000000001
aF0.21000000000000002
aa(lp1751
F0.8400000000000001
aF0.22000000000000003
aa(lp1752
F0.8400000000000001
aF0.23000000000000004
aa(lp1753
F0.8400000000000001
aF0.24
aa(lp1754
F0.8400000000000001
aF0.25
aa(lp1755
F0.8400000000000001
aF0.26
aa(lp1756
F0.8400000000000001
aF0.27
aa(lp1757
F0.8400000000000001
aF0.28
aa(lp1758
F0.8400000000000001
aF0.29000000000000004
aa(lp1759
F0.8400000000000001
aF0.3
aa(lp1760
F0.8400000000000001
aF0.31
aa(lp1761
F0.8400000000000001
aF0.32
aa(lp1762
F0.8400000000000001
aF0.33
aa(lp1763
F0.8400000000000001
aF0.34
aa(lp1764
F0.8400000000000001
aF0.35000000000000003
aa(lp1765
F0.8400000000000001
aF0.36000000000000004
aa(lp1766
F0.8400000000000001
aF0.37000000000000005
aa(lp1767
F0.8400000000000001
aF0.38000000000000006
aa(lp1768
F0.8500000000000001
aF-0.18
aa(lp1769
F0.8500000000000001
aF-0.16999999999999998
aa(lp1770
F0.8500000000000001
aF-0.16
aa(lp1771
F0.8500000000000001
aF-0.15
aa(lp1772
F0.8500000000000001
aF-0.13999999999999999
aa(lp1773
F0.8500000000000001
aF-0.13
aa(lp1774
F0.8500000000000001
aF-0.12
aa(lp1775
F0.8500000000000001
aF-0.10999999999999999
aa(lp1776
F0.8500000000000001
aF-0.09999999999999999
aa(lp1777
F0.8500000000000001
aF-0.09
aa(lp1778
F0.8500000000000001
aF-0.07999999999999999
aa(lp1779
F0.8500000000000001
aF-0.06999999999999999
aa(lp1780
F0.8500000000000001
aF-0.06
aa(lp1781
F0.8500000000000001
aF-0.04999999999999999
aa(lp1782
F0.8500000000000001
aF-0.03999999999999998
aa(lp1783
F0.8500000000000001
aF-0.03
aa(lp1784
F0.8500000000000001
aF-0.01999999999999999
aa(lp1785
F0.8500000000000001
aF-0.009999999999999981
aa(lp1786
F0.8500000000000001
aF0.0
aa(lp1787
F0.8500000000000001
aF0.010000000000000009
aa(lp1788
F0.8500000000000001
aF0.020000000000000018
aa(lp1789
F0.8500000000000001
aF0.03
aa(lp1790
F0.8500000000000001
aF0.04000000000000001
aa(lp1791
F0.8500000000000001
aF0.05000000000000002
aa(lp1792
F0.8500000000000001
aF0.06
aa(lp1793
F0.8500000000000001
aF0.07
aa(lp1794
F0.8500000000000001
aF0.08000000000000002
aa(lp1795
F0.8500000000000001
aF0.09000000000000002
aa(lp1796
F0.8500000000000001
aF0.10000000000000003
aa(lp1797
F0.8500000000000001
aF0.10999999999999999
aa(lp1798
F0.8500000000000001
aF0.12
aa(lp1799
F0.8500000000000001
aF0.13
aa(lp1800
F0.8500000000000001
aF0.14
aa(lp1801
F0.8500000000000001
aF0.15000000000000002
aa(lp1802
F0.8500000000000001
aF0.16000000000000003
aa(lp1803
F0.8500000000000001
aF0.17000000000000004
aa(lp1804
F0.8500000000000001
aF0.18
aa(lp1805
F0.8500000000000001
aF0.19
aa(lp1806
F0.8500000000000001
aF0.2
aa(lp1807
F0.8500000000000001
aF0.21000000000000002
aa(lp1808
F0.8500000000000001
aF0.22000000000000003
aa(lp1809
F0.8500000000000001
aF0.23000000000000004
aa(lp1810
F0.8500000000000001
aF0.24
aa(lp1811
F0.8500000000000001
aF0.25
aa(lp1812
F0.8500000000000001
aF0.26
aa(lp1813
F0.8500000000000001
aF0.27
aa(lp1814
F0.8500000000000001
aF0.28
aa(lp1815
F0.8500000000000001
aF0.29000000000000004
aa(lp1816
F0.8500000000000001
aF0.3
aa(lp1817
F0.8500000000000001
aF0.31
aa(lp1818
F0.8500000000000001
aF0.32
aa(lp1819
F0.8500000000000001
aF0.33
aa(lp1820
F0.8500000000000001
aF0.34
aa(lp1821
F0.8500000000000001
aF0.35000000000000003
aa(lp1822
F0.8500000000000001
aF0.36000000000000004
aa(lp1823
F0.8500000000000001
aF0.37000000000000005
aa(lp1824
F0.8500000000000001
aF0.38000000000000006
aa(lp1825
F0.8600000000000001
aF-0.18
aa(lp1826
F0.8600000000000001
aF-0.16999999999999998
aa(lp1827
F0.8600000000000001
aF-0.16
aa(lp1828
F0.8600000000000001
aF-0.15
aa(lp1829
F0.8600000000000001
aF-0.13999999999999999
aa(lp1830
F0.8600000000000001
aF-0.13
aa(lp1831
F0.8600000000000001
aF-0.12
aa(lp1832
F0.8600000000000001
aF-0.10999999999999999
aa(lp1833
F0.8600000000000001
aF-0.09999999999999999
aa(lp1834
F0.8600000000000001
aF-0.09
aa(lp1835
F0.8600000000000001
aF-0.07999999999999999
aa(lp1836
F0.8600000000000001
aF-0.06999999999999999
aa(lp1837
F0.8600000000000001
aF-0.06
aa(lp1838
F0.8600000000000001
aF-0.04999999999999999
aa(lp1839
F0.8600000000000001
aF-0.03999999999999998
aa(lp1840
F0.8600000000000001
aF-0.03
aa(lp1841
F0.8600000000000001
aF-0.01999999999999999
aa(lp1842
F0.8600000000000001
aF-0.009999999999999981
aa(lp1843
F0.8600000000000001
aF0.0
aa(lp1844
F0.8600000000000001
aF0.010000000000000009
aa(lp1845
F0.8600000000000001
aF0.020000000000000018
aa(lp1846
F0.8600000000000001
aF0.03
aa(lp1847
F0.8600000000000001
aF0.04000000000000001
aa(lp1848
F0.8600000000000001
aF0.05000000000000002
aa(lp1849
F0.8600000000000001
aF0.06
aa(lp1850
F0.8600000000000001
aF0.07
aa(lp1851
F0.8600000000000001
aF0.08000000000000002
aa(lp1852
F0.8600000000000001
aF0.09000000000000002
aa(lp1853
F0.8600000000000001
aF0.10000000000000003
aa(lp1854
F0.8600000000000001
aF0.10999999999999999
aa(lp1855
F0.8600000000000001
aF0.12
aa(lp1856
F0.8600000000000001
aF0.13
aa(lp1857
F0.8600000000000001
aF0.14
aa(lp1858
F0.8600000000000001
aF0.15000000000000002
aa(lp1859
F0.8600000000000001
aF0.16000000000000003
aa(lp1860
F0.8600000000000001
aF0.17000000000000004
aa(lp1861
F0.8600000000000001
aF0.18
aa(lp1862
F0.8600000000000001
aF0.19
aa(lp1863
F0.8600000000000001
aF0.2
aa(lp1864
F0.8600000000000001
aF0.21000000000000002
aa(lp1865
F0.8600000000000001
aF0.22000000000000003
aa(lp1866
F0.8600000000000001
aF0.23000000000000004
aa(lp1867
F0.8600000000000001
aF0.24
aa(lp1868
F0.8600000000000001
aF0.25
aa(lp1869
F0.8600000000000001
aF0.26
aa(lp1870
F0.8600000000000001
aF0.27
aa(lp1871
F0.8600000000000001
aF0.28
aa(lp1872
F0.8600000000000001
aF0.29000000000000004
aa(lp1873
F0.8600000000000001
aF0.3
aa(lp1874
F0.8600000000000001
aF0.31
aa(lp1875
F0.8600000000000001
aF0.32
aa(lp1876
F0.8600000000000001
aF0.33
aa(lp1877
F0.8600000000000001
aF0.34
aa(lp1878
F0.8600000000000001
aF0.35000000000000003
aa(lp1879
F0.8600000000000001
aF0.36000000000000004
aa(lp1880
F0.8600000000000001
aF0.37000000000000005
aa(lp1881
F0.8600000000000001
aF0.38000000000000006
aa(lp1882
F0.8700000000000001
aF-0.18
aa(lp1883
F0.8700000000000001
aF-0.16999999999999998
aa(lp1884
F0.8700000000000001
aF-0.16
aa(lp1885
F0.8700000000000001
aF-0.15
aa(lp1886
F0.8700000000000001
aF-0.13999999999999999
aa(lp1887
F0.8700000000000001
aF-0.13
aa(lp1888
F0.8700000000000001
aF-0.12
aa(lp1889
F0.8700000000000001
aF-0.10999999999999999
aa(lp1890
F0.8700000000000001
aF-0.09999999999999999
aa(lp1891
F0.8700000000000001
aF-0.09
aa(lp1892
F0.8700000000000001
aF-0.07999999999999999
aa(lp1893
F0.8700000000000001
aF-0.06999999999999999
aa(lp1894
F0.8700000000000001
aF-0.06
aa(lp1895
F0.8700000000000001
aF-0.04999999999999999
aa(lp1896
F0.8700000000000001
aF-0.03999999999999998
aa(lp1897
F0.8700000000000001
aF-0.03
aa(lp1898
F0.8700000000000001
aF-0.01999999999999999
aa(lp1899
F0.8700000000000001
aF-0.009999999999999981
aa(lp1900
F0.8700000000000001
aF0.0
aa(lp1901
F0.8700000000000001
aF0.010000000000000009
aa(lp1902
F0.8700000000000001
aF0.020000000000000018
aa(lp1903
F0.8700000000000001
aF0.03
aa(lp1904
F0.8700000000000001
aF0.04000000000000001
aa(lp1905
F0.8700000000000001
aF0.05000000000000002
aa(lp1906
F0.8700000000000001
aF0.06
aa(lp1907
F0.8700000000000001
aF0.07
aa(lp1908
F0.8700000000000001
aF0.08000000000000002
aa(lp1909
F0.8700000000000001
aF0.09000000000000002
aa(lp1910
F0.8700000000000001
aF0.10000000000000003
aa(lp1911
F0.8700000000000001
aF0.10999999999999999
aa(lp1912
F0.8700000000000001
aF0.12
aa(lp1913
F0.8700000000000001
aF0.13
aa(lp1914
F0.8700000000000001
aF0.14
aa(lp1915
F0.8700000000000001
aF0.15000000000000002
aa(lp1916
F0.8700000000000001
aF0.16000000000000003
aa(lp1917
F0.8700000000000001
aF0.17000000000000004
aa(lp1918
F0.8700000000000001
aF0.18
aa(lp1919
F0.8700000000000001
aF0.19
aa(lp1920
F0.8700000000000001
aF0.2
aa(lp1921
F0.8700000000000001
aF0.21000000000000002
aa(lp1922
F0.8700000000000001
aF0.22000000000000003
aa(lp1923
F0.8700000000000001
aF0.23000000000000004
aa(lp1924
F0.8700000000000001
aF0.24
aa(lp1925
F0.8700000000000001
aF0.25
aa(lp1926
F0.8700000000000001
aF0.26
aa(lp1927
F0.8700000000000001
aF0.27
aa(lp1928
F0.8700000000000001
aF0.28
aa(lp1929
F0.8700000000000001
aF0.29000000000000004
aa(lp1930
F0.8700000000000001
aF0.3
aa(lp1931
F0.8700000000000001
aF0.31
aa(lp1932
F0.8700000000000001
aF0.32
aa(lp1933
F0.8700000000000001
aF0.33
aa(lp1934
F0.8700000000000001
aF0.34
aa(lp1935
F0.8700000000000001
aF0.35000000000000003
aa(lp1936
F0.8700000000000001
aF0.36000000000000004
aa(lp1937
F0.8700000000000001
aF0.37000000000000005
aa(lp1938
F0.8700000000000001
aF0.38000000000000006
aa(lp1939
F0.8800000000000001
aF-0.18
aa(lp1940
F0.8800000000000001
aF-0.16999999999999998
aa(lp1941
F0.8800000000000001
aF-0.16
aa(lp1942
F0.8800000000000001
aF-0.15
aa(lp1943
F0.8800000000000001
aF-0.13999999999999999
aa(lp1944
F0.8800000000000001
aF-0.13
aa(lp1945
F0.8800000000000001
aF-0.12
aa(lp1946
F0.8800000000000001
aF-0.10999999999999999
aa(lp1947
F0.8800000000000001
aF-0.09999999999999999
aa(lp1948
F0.8800000000000001
aF-0.09
aa(lp1949
F0.8800000000000001
aF-0.07999999999999999
aa(lp1950
F0.8800000000000001
aF-0.06999999999999999
aa(lp1951
F0.8800000000000001
aF-0.06
aa(lp1952
F0.8800000000000001
aF-0.04999999999999999
aa(lp1953
F0.8800000000000001
aF-0.03999999999999998
aa(lp1954
F0.8800000000000001
aF-0.03
aa(lp1955
F0.8800000000000001
aF-0.01999999999999999
aa(lp1956
F0.8800000000000001
aF-0.009999999999999981
aa(lp1957
F0.8800000000000001
aF0.0
aa(lp1958
F0.8800000000000001
aF0.010000000000000009
aa(lp1959
F0.8800000000000001
aF0.020000000000000018
aa(lp1960
F0.8800000000000001
aF0.03
aa(lp1961
F0.8800000000000001
aF0.04000000000000001
aa(lp1962
F0.8800000000000001
aF0.05000000000000002
aa(lp1963
F0.8800000000000001
aF0.06
aa(lp1964
F0.8800000000000001
aF0.07
aa(lp1965
F0.8800000000000001
aF0.08000000000000002
aa(lp1966
F0.8800000000000001
aF0.09000000000000002
aa(lp1967
F0.8800000000000001
aF0.10000000000000003
aa(lp1968
F0.8800000000000001
aF0.10999999999999999
aa(lp1969
F0.8800000000000001
aF0.12
aa(lp1970
F0.8800000000000001
aF0.13
aa(lp1971
F0.8800000000000001
aF0.14
aa(lp1972
F0.8800000000000001
aF0.15000000000000002
aa(lp1973
F0.8800000000000001
aF0.16000000000000003
aa(lp1974
F0.8800000000000001
aF0.17000000000000004
aa(lp1975
F0.8800000000000001
aF0.18
aa(lp1976
F0.8800000000000001
aF0.19
aa(lp1977
F0.8800000000000001
aF0.2
aa(lp1978
F0.8800000000000001
aF0.21000000000000002
aa(lp1979
F0.8800000000000001
aF0.22000000000000003
aa(lp1980
F0.8800000000000001
aF0.23000000000000004
aa(lp1981
F0.8800000000000001
aF0.24
aa(lp1982
F0.8800000000000001
aF0.25
aa(lp1983
F0.8800000000000001
aF0.26
aa(lp1984
F0.8800000000000001
aF0.27
aa(lp1985
F0.8800000000000001
aF0.28
aa(lp1986
F0.8800000000000001
aF0.29000000000000004
aa(lp1987
F0.8800000000000001
aF0.3
aa(lp1988
F0.8800000000000001
aF0.31
aa(lp1989
F0.8800000000000001
aF0.32
aa(lp1990
F0.8800000000000001
aF0.33
aa(lp1991
F0.8800000000000001
aF0.34
aa(lp1992
F0.8800000000000001
aF0.35000000000000003
aa(lp1993
F0.8800000000000001
aF0.36000000000000004
aa(lp1994
F0.8800000000000001
aF0.37000000000000005
aa(lp1995
F0.8800000000000001
aF0.38000000000000006
aa(lp1996
F0.8900000000000001
aF-0.18
aa(lp1997
F0.8900000000000001
aF-0.16999999999999998
aa(lp1998
F0.8900000000000001
aF-0.16
aa(lp1999
F0.8900000000000001
aF-0.15
aa(lp2000
F0.8900000000000001
aF-0.13999999999999999
aa(lp2001
F0.8900000000000001
aF-0.13
aa(lp2002
F0.8900000000000001
aF-0.12
aa(lp2003
F0.8900000000000001
aF-0.10999999999999999
aa(lp2004
F0.8900000000000001
aF-0.09999999999999999
aa(lp2005
F0.8900000000000001
aF-0.09
aa(lp2006
F0.8900000000000001
aF-0.07999999999999999
aa(lp2007
F0.8900000000000001
aF-0.06999999999999999
aa(lp2008
F0.8900000000000001
aF-0.06
aa(lp2009
F0.8900000000000001
aF-0.04999999999999999
aa(lp2010
F0.8900000000000001
aF-0.03999999999999998
aa(lp2011
F0.8900000000000001
aF-0.03
aa(lp2012
F0.8900000000000001
aF-0.01999999999999999
aa(lp2013
F0.8900000000000001
aF-0.009999999999999981
aa(lp2014
F0.8900000000000001
aF0.0
aa(lp2015
F0.8900000000000001
aF0.010000000000000009
aa(lp2016
F0.8900000000000001
aF0.020000000000000018
aa(lp2017
F0.8900000000000001
aF0.03
aa(lp2018
F0.8900000000000001
aF0.04000000000000001
aa(lp2019
F0.8900000000000001
aF0.05000000000000002
aa(lp2020
F0.8900000000000001
aF0.06
aa(lp2021
F0.8900000000000001
aF0.07
aa(lp2022
F0.8900000000000001
aF0.08000000000000002
aa(lp2023
F0.8900000000000001
aF0.09000000000000002
aa(lp2024
F0.8900000000000001
aF0.10000000000000003
aa(lp2025
F0.8900000000000001
aF0.10999999999999999
aa(lp2026
F0.8900000000000001
aF0.12
aa(lp2027
F0.8900000000000001
aF0.13
aa(lp2028
F0.8900000000000001
aF0.14
aa(lp2029
F0.8900000000000001
aF0.15000000000000002
aa(lp2030
F0.8900000000000001
aF0.16000000000000003
aa(lp2031
F0.8900000000000001
aF0.17000000000000004
aa(lp2032
F0.8900000000000001
aF0.18
aa(lp2033
F0.8900000000000001
aF0.19
aa(lp2034
F0.8900000000000001
aF0.2
aa(lp2035
F0.8900000000000001
aF0.21000000000000002
aa(lp2036
F0.8900000000000001
aF0.22000000000000003
aa(lp2037
F0.8900000000000001
aF0.23000000000000004
aa(lp2038
F0.8900000000000001
aF0.24
aa(lp2039
F0.8900000000000001
aF0.25
aa(lp2040
F0.8900000000000001
aF0.26
aa(lp2041
F0.8900000000000001
aF0.27
aa(lp2042
F0.8900000000000001
aF0.28
aa(lp2043
F0.8900000000000001
aF0.29000000000000004
aa(lp2044
F0.8900000000000001
aF0.3
aa(lp2045
F0.8900000000000001
aF0.31
aa(lp2046
F0.8900000000000001
aF0.32
aa(lp2047
F0.8900000000000001
aF0.33
aa(lp2048
F0.8900000000000001
aF0.34
aa(lp2049
F0.8900000000000001
aF0.35000000000000003
aa(lp2050
F0.8900000000000001
aF0.36000000000000004
aa(lp2051
F0.8900000000000001
aF0.37000000000000005
aa(lp2052
F0.8900000000000001
aF0.38000000000000006
aa.